 lua51

 Timestamp is 4c97bf4c (Mon Sep 20 13:08:44 2010)

 Preferred load address is 10000000

 Start         Length     Name                   Class
 0001:00000000 0001b526H .text                   CODE
 0001:0001b528 000000b5H .text$yc                CODE
 0002:00000000 00000274H .idata$5                DATA
 0002:00000274 00000004H .CRT$XCA                DATA
 0002:00000278 00000004H .CRT$XCZ                DATA
 0002:0000027c 00000004H .CRT$XIA                DATA
 0002:00000280 00000004H .CRT$XIAA               DATA
 0002:00000284 00000004H .CRT$XIZ                DATA
 0002:00000288 00000004H .CRTMA$XCA              DATA
 0002:0000028c 0000001cH .CRTMA$XCC              DATA
 0002:000002a8 00000004H .CRTMA$XCZ              DATA
 0002:000002ac 00000004H .CRTMP$XCA              DATA
 0002:000002b0 00000004H .CRTMP$XCZ              DATA
 0002:000002b4 00000004H .CRTVT$XCA              DATA
 0002:000002b8 00000004H .CRTVT$XCZ              DATA
 0002:000002c0 000273a0H .rdata                  DATA
 0002:00027660 0000007eH .rdata$debug            DATA
 0002:000276e0 00001870H .rdata$ilfixup          DATA
 0002:00028f50 00000048H .rdata$r                DATA
 0002:00028fa0 00000004H .rdata$sxdata           DATA
 0002:00028fa4 00000004H .rtc$IAA                DATA
 0002:00028fa8 00000004H .rtc$IZZ                DATA
 0002:00028fac 00000004H .rtc$TAA                DATA
 0002:00028fb0 00000004H .rtc$TZZ                DATA
 0002:00028fb8 000000f8H .xdata$x                DATA
 0002:000290b0 00000050H .idata$2                DATA
 0002:00029100 00000014H .idata$3                DATA
 0002:00029114 00000274H .idata$4                DATA
 0002:00029388 000009c2H .idata$6                DATA
 0002:00029d4a 00000000H .edata                  DATA
 0003:00000000 00000cb0H .data                   DATA
 0003:00000cb0 00001afcH .bss                    DATA
 0004:00000000 00000058H .rsrc$01                DATA
 0004:00000060 00000298H .rsrc$02                DATA

  Address         Publics by Value              Rva+Base       Lib:Object

 0000:00000000       __except_list              00000000     <absolute>
 0000:00000001       ___safe_se_handler_count   00000001     <absolute>
 0000:00000001       ?IsDefaultDomain@CurrentDomain@<CrtImplementationDetails>@@$$Q2_NA 00000001     <absolute>
 0000:00000004       ?_lock@AtExitLock@<CrtImplementationDetails>@@$$Q0PAXA 00000004     <absolute>
 0000:00000004       ?InitializedNative@CurrentDomain@<CrtImplementationDetails>@@$$Q2W4State@Progress@2@A 00000004     <absolute>
 0000:00000004       ?__onexitbegin_app_domain@@$$Q3PAP6MXXZA 00000004     <absolute>
 0000:00000004       ?_ref_count@AtExitLock@<CrtImplementationDetails>@@$$Q0HA 00000004     <absolute>
 0000:00000004       ?Uninitialized@CurrentDomain@<CrtImplementationDetails>@@$$Q2HA 00000004     <absolute>
 0000:00000004       ?InitializedPerAppDomain@CurrentDomain@<CrtImplementationDetails>@@$$Q2W4State@Progress@2@A 00000004     <absolute>
 0000:00000004       ?InitializedPerProcess@CurrentDomain@<CrtImplementationDetails>@@$$Q2W4State@Progress@2@A 00000004     <absolute>
 0000:00000004       ?Initialized@CurrentDomain@<CrtImplementationDetails>@@$$Q2HA 00000004     <absolute>
 0000:00000004       ?InitializedVtables@CurrentDomain@<CrtImplementationDetails>@@$$Q2W4State@Progress@2@A 00000004     <absolute>
 0000:00000004       ?__exit_list_size_app_domain@@$$Q3IA 00000004     <absolute>
 0000:00000004       ?__onexitend_app_domain@@$$Q3PAP6MXXZA 00000004     <absolute>
 0000:00009876       __ldused                   00009876     <absolute>
 0000:00009876       __fltused                  00009876     <absolute>
 0000:00000000       ___ImageBase               10000000     <linker-defined>
 0001:00000000       ?lua_gc@LuaDLL@Lua511@@$$FSMHVIntPtr@System@@W4LuaGCOptions@2@H@Z 10001000 f i LuaDLL.obj
 0001:00000020       ?lua_typename@LuaDLL@Lua511@@$$FSMP$AAVString@System@@VIntPtr@4@W4LuaTypes@2@@Z 10001020 f i LuaDLL.obj
 0001:00000044       ?luaL_typename@LuaDLL@Lua511@@$$FSMP$AAVString@System@@VIntPtr@4@H@Z 10001044 f i LuaDLL.obj
 0001:00000060       ?luaL_error@LuaDLL@Lua511@@$$FSMXVIntPtr@System@@P$AAVString@4@@Z 10001060 f i LuaDLL.obj
 0001:00000098       ?luaL_where@LuaDLL@Lua511@@$$FSMXVIntPtr@System@@H@Z 10001098 f i LuaDLL.obj
 0001:000000b4       ?luaL_newstate@LuaDLL@Lua511@@$$FSM?AVIntPtr@System@@XZ 100010b4 f i LuaDLL.obj
 0001:000000d0       ?lua_close@LuaDLL@Lua511@@$$FSMXVIntPtr@System@@@Z 100010d0 f i LuaDLL.obj
 0001:000000ec       ?luaL_openlibs@LuaDLL@Lua511@@$$FSMXVIntPtr@System@@@Z 100010ec f i LuaDLL.obj
 0001:00000108       ?luaL_loadstring@LuaDLL@Lua511@@$$FSMHVIntPtr@System@@P$AAVString@4@@Z 10001108 f i LuaDLL.obj
 0001:00000144       ?luaL_dostring@LuaDLL@Lua511@@$$FSMHVIntPtr@System@@P$AAVString@4@@Z 10001144 f i LuaDLL.obj
 0001:0000016c       ?lua_dostring@LuaDLL@Lua511@@$$FSMHVIntPtr@System@@P$AAVString@4@@Z 1000116c f i LuaDLL.obj
 0001:00000184       ?lua_createtable@LuaDLL@Lua511@@$$FSMXVIntPtr@System@@HH@Z 10001184 f i LuaDLL.obj
 0001:000001a0       ?lua_newtable@LuaDLL@Lua511@@$$FSMXVIntPtr@System@@@Z 100011a0 f i LuaDLL.obj
 0001:000001b8       ?luaL_dofile@LuaDLL@Lua511@@$$FSMHVIntPtr@System@@P$AAVString@4@@Z 100011b8 f i LuaDLL.obj
 0001:0000020c       ?lua_getglobal@LuaDLL@Lua511@@$$FSMXVIntPtr@System@@P$AAVString@4@@Z 1000120c f i LuaDLL.obj
 0001:00000234       ?lua_setglobal@LuaDLL@Lua511@@$$FSMXVIntPtr@System@@P$AAVString@4@@Z 10001234 f i LuaDLL.obj
 0001:0000025c       ?lua_settop@LuaDLL@Lua511@@$$FSMXVIntPtr@System@@H@Z 1000125c f i LuaDLL.obj
 0001:00000278       ?lua_pop@LuaDLL@Lua511@@$$FSMXVIntPtr@System@@H@Z 10001278 f i LuaDLL.obj
 0001:00000290       ?lua_insert@LuaDLL@Lua511@@$$FSMXVIntPtr@System@@H@Z 10001290 f i LuaDLL.obj
 0001:000002ac       ?lua_remove@LuaDLL@Lua511@@$$FSMXVIntPtr@System@@H@Z 100012ac f i LuaDLL.obj
 0001:000002c8       ?lua_gettable@LuaDLL@Lua511@@$$FSMXVIntPtr@System@@H@Z 100012c8 f i LuaDLL.obj
 0001:000002e4       ?lua_rawget@LuaDLL@Lua511@@$$FSMXVIntPtr@System@@H@Z 100012e4 f i LuaDLL.obj
 0001:00000300       ?lua_settable@LuaDLL@Lua511@@$$FSMXVIntPtr@System@@H@Z 10001300 f i LuaDLL.obj
 0001:0000031c       ?lua_rawset@LuaDLL@Lua511@@$$FSMXVIntPtr@System@@H@Z 1000131c f i LuaDLL.obj
 0001:00000338       ?lua_setmetatable@LuaDLL@Lua511@@$$FSMXVIntPtr@System@@H@Z 10001338 f i LuaDLL.obj
 0001:00000354       ?lua_getmetatable@LuaDLL@Lua511@@$$FSMHVIntPtr@System@@H@Z 10001354 f i LuaDLL.obj
 0001:00000370       ?lua_equal@LuaDLL@Lua511@@$$FSMHVIntPtr@System@@HH@Z 10001370 f i LuaDLL.obj
 0001:00000390       ?lua_pushvalue@LuaDLL@Lua511@@$$FSMXVIntPtr@System@@H@Z 10001390 f i LuaDLL.obj
 0001:000003ac       ?lua_replace@LuaDLL@Lua511@@$$FSMXVIntPtr@System@@H@Z 100013ac f i LuaDLL.obj
 0001:000003c8       ?lua_gettop@LuaDLL@Lua511@@$$FSMHVIntPtr@System@@@Z 100013c8 f i LuaDLL.obj
 0001:000003e4       ?lua_type@LuaDLL@Lua511@@$$FSM?AW4LuaTypes@2@VIntPtr@System@@H@Z 100013e4 f i LuaDLL.obj
 0001:00000404       ?lua_isnil@LuaDLL@Lua511@@$$FSM_NVIntPtr@System@@H@Z 10001404 f i LuaDLL.obj
 0001:00000420       ?lua_isnumber@LuaDLL@Lua511@@$$FSM_NVIntPtr@System@@H@Z 10001420 f i LuaDLL.obj
 0001:00000440       ?lua_isboolean@LuaDLL@Lua511@@$$FSM_NVIntPtr@System@@H@Z 10001440 f i LuaDLL.obj
 0001:00000460       ?luaL_ref@LuaDLL@Lua511@@$$FSMHVIntPtr@System@@H@Z 10001460 f i LuaDLL.obj
 0001:0000047c       ?lua_ref@LuaDLL@Lua511@@$$FSMHVIntPtr@System@@H@Z 1000147c f i LuaDLL.obj
 0001:000004a0       ?lua_rawgeti@LuaDLL@Lua511@@$$FSMXVIntPtr@System@@HH@Z 100014a0 f i LuaDLL.obj
 0001:000004bc       ?lua_rawseti@LuaDLL@Lua511@@$$FSMXVIntPtr@System@@HH@Z 100014bc f i LuaDLL.obj
 0001:000004d8       ?lua_newuserdata@LuaDLL@Lua511@@$$FSM?AVIntPtr@System@@V34@H@Z 100014d8 f i LuaDLL.obj
 0001:000004fc       ?lua_touserdata@LuaDLL@Lua511@@$$FSM?AVIntPtr@System@@V34@H@Z 100014fc f i LuaDLL.obj
 0001:00000520       ?lua_getref@LuaDLL@Lua511@@$$FSMXVIntPtr@System@@H@Z 10001520 f i LuaDLL.obj
 0001:0000053c       ?lua_unref@LuaDLL@Lua511@@$$FSMXVIntPtr@System@@H@Z 1000153c f i LuaDLL.obj
 0001:0000055c       ?lua_isstring@LuaDLL@Lua511@@$$FSM_NVIntPtr@System@@H@Z 1000155c f i LuaDLL.obj
 0001:00000580       ?lua_iscfunction@LuaDLL@Lua511@@$$FSM_NVIntPtr@System@@H@Z 10001580 f i LuaDLL.obj
 0001:000005a4       ?lua_pushnil@LuaDLL@Lua511@@$$FSMXVIntPtr@System@@@Z 100015a4 f i LuaDLL.obj
 0001:000005c0       ?lua_call@LuaDLL@Lua511@@$$FSMXVIntPtr@System@@HH@Z 100015c0 f i LuaDLL.obj
 0001:000005dc       ?lua_pcall@LuaDLL@Lua511@@$$FSMHVIntPtr@System@@HHH@Z 100015dc f i LuaDLL.obj
 0001:000005fc       ?lua_tocfunction@LuaDLL@Lua511@@$$FSM?AVIntPtr@System@@V34@H@Z 100015fc f i LuaDLL.obj
 0001:00000620       ?lua_tonumber@LuaDLL@Lua511@@$$FSMNVIntPtr@System@@H@Z 10001620 f i LuaDLL.obj
 0001:0000063c       ?lua_toboolean@LuaDLL@Lua511@@$$FSM_NVIntPtr@System@@H@Z 1000163c f i LuaDLL.obj
 0001:00000664       ?lua_tostring@LuaDLL@Lua511@@$$FSMP$AAVString@System@@VIntPtr@4@H@Z 10001664 f i LuaDLL.obj
 0001:000006cc       ?lua_atpanic@LuaDLL@Lua511@@$$FSMXVIntPtr@System@@P$AAVLuaCSFunction@2@@Z 100016cc f i LuaDLL.obj
 0001:000006f4       ?lua_pushstdcallcfunction@LuaDLL@Lua511@@$$FSMXVIntPtr@System@@P$AAVLuaCSFunction@2@@Z 100016f4 f i LuaDLL.obj
 0001:0000071c       ?lua_pushnumber@LuaDLL@Lua511@@$$FSMXVIntPtr@System@@N@Z 1000171c f i LuaDLL.obj
 0001:00000738       ?lua_pushboolean@LuaDLL@Lua511@@$$FSMXVIntPtr@System@@_N@Z 10001738 f i LuaDLL.obj
 0001:00000754       ?lua_pushstring@LuaDLL@Lua511@@$$FSMXVIntPtr@System@@P$AAVString@4@@Z 10001754 f i LuaDLL.obj
 0001:0000078c       ?luaL_newmetatable@LuaDLL@Lua511@@$$FSMHVIntPtr@System@@P$AAVString@4@@Z 1000178c f i LuaDLL.obj
 0001:000007c8       ?lua_getfield@LuaDLL@Lua511@@$$FSMXVIntPtr@System@@HP$AAVString@4@@Z 100017c8 f i LuaDLL.obj
 0001:00000800       ?luaL_getmetatable@LuaDLL@Lua511@@$$FSMXVIntPtr@System@@P$AAVString@4@@Z 10001800 f i LuaDLL.obj
 0001:0000081c       ?luaL_checkudata@LuaDLL@Lua511@@$$FSM?AVIntPtr@System@@V34@HP$AAVString@4@@Z 1000181c f i LuaDLL.obj
 0001:00000864       ?luaL_getmetafield@LuaDLL@Lua511@@$$FSM_NVIntPtr@System@@HP$AAVString@4@@Z 10001864 f i LuaDLL.obj
 0001:000008a8       ?luaL_loadbuffer@LuaDLL@Lua511@@$$FSMHVIntPtr@System@@P$AAVString@4@1@Z 100018a8 f i LuaDLL.obj
 0001:0000090c       ?luaL_loadfile@LuaDLL@Lua511@@$$FSMHVIntPtr@System@@P$AAVString@4@@Z 1000190c f i LuaDLL.obj
 0001:00000948       ?lua_error@LuaDLL@Lua511@@$$FSMXVIntPtr@System@@@Z 10001948 f i LuaDLL.obj
 0001:00000964       ?lua_checkstack@LuaDLL@Lua511@@$$FSM_NVIntPtr@System@@H@Z 10001964 f i LuaDLL.obj
 0001:00000988       ?lua_next@LuaDLL@Lua511@@$$FSMHVIntPtr@System@@H@Z 10001988 f i LuaDLL.obj
 0001:000009a4       ?lua_pushlightuserdata@LuaDLL@Lua511@@$$FSMXVIntPtr@System@@0@Z 100019a4 f i LuaDLL.obj
 0001:000009c4       ?luanet_rawnetobj@LuaDLL@Lua511@@$$FSMHVIntPtr@System@@H@Z 100019c4 f i LuaDLL.obj
 0001:000009ec       ?lua_sethook@LuaDLL@Lua511@@$$FSMHVIntPtr@System@@P$AAVLuaHookFunction@2@HH@Z 100019ec f i LuaDLL.obj
 0001:00000a30       ?lua_gethookmask@LuaDLL@Lua511@@$$FSMHVIntPtr@System@@@Z 10001a30 f i LuaDLL.obj
 0001:00000a4c       ?lua_gethookcount@LuaDLL@Lua511@@$$FSMHVIntPtr@System@@@Z 10001a4c f i LuaDLL.obj
 0001:00000a68       ?lua_getstack@LuaDLL@Lua511@@$$FSMHVIntPtr@System@@H0@Z 10001a68 f i LuaDLL.obj
 0001:00000a8c       ?lua_getinfo@LuaDLL@Lua511@@$$FSMHVIntPtr@System@@P$AAVString@4@0@Z 10001a8c f i LuaDLL.obj
 0001:00000ad0       ?lua_getlocal@LuaDLL@Lua511@@$$FSMP$AAVString@System@@VIntPtr@4@0H@Z 10001ad0 f i LuaDLL.obj
 0001:00000b04       ?lua_setlocal@LuaDLL@Lua511@@$$FSMP$AAVString@System@@VIntPtr@4@0H@Z 10001b04 f i LuaDLL.obj
 0001:00000b38       ?lua_getupvalue@LuaDLL@Lua511@@$$FSMP$AAVString@System@@VIntPtr@4@HH@Z 10001b38 f i LuaDLL.obj
 0001:00000b64       ?lua_setupvalue@LuaDLL@Lua511@@$$FSMP$AAVString@System@@VIntPtr@4@HH@Z 10001b64 f i LuaDLL.obj
 0001:00000b90       ?checkudata_raw@LuaDLL@Lua511@@$$FCMPAXPAUlua_State@@HPBD@Z 10001b90 f i LuaDLL.obj
 0001:00000bdc       ?luanet_checkudata@LuaDLL@Lua511@@$$FSMHVIntPtr@System@@HP$AAVString@4@@Z 10001bdc f i LuaDLL.obj
 0001:00000c24       ?luaL_checkmetatable@LuaDLL@Lua511@@$$FSM_NVIntPtr@System@@H@Z 10001c24 f i LuaDLL.obj
 0001:00000c7c       ?luanet_gettag@LuaDLL@Lua511@@$$FSM?AVIntPtr@System@@XZ 10001c7c f i LuaDLL.obj
 0001:00000c98       ?luanet_newudata@LuaDLL@Lua511@@$$FSMXVIntPtr@System@@H@Z 10001c98 f i LuaDLL.obj
 0001:00000cb8       ?luanet_tonetobject@LuaDLL@Lua511@@$$FSMHVIntPtr@System@@H@Z 10001cb8 f i LuaDLL.obj
 0001:00000d44       ??0LuaDLL@Lua511@@$$FQ$AAM@XZ 10001d44 f i LuaDLL.obj
 0001:00000d58       ?strchr@@$$FYAPADPADH@Z    10001d58 f i luaglue.obj
 0001:00000d70       __t2m@?strchr@@YAPADPADH@Z 10001d70 f i luaglue.obj
 0001:00000d78       ?strrchr@@$$FYAPADPADH@Z   10001d78 f i luaglue.obj
 0001:00000d90       __t2m@?strrchr@@YAPADPADH@Z 10001d90 f i luaglue.obj
 0001:00000da0       ?index2adr@?A0xc8d640f7@@YGPAUlua_TValue@@PAUlua_State@@H@Z 10001da0 f   luaglue.obj
 0001:00000db0       ?getcurrenv@?A0xc8d640f7@@YGPAUTable@@PAUlua_State@@@Z 10001db0 f   luaglue.obj
 0001:00000dc0       ?luaA_pushobject@@YGXPAUlua_State@@PBUlua_TValue@@@Z 10001dc0 f   luaglue.obj
 0001:00000dd0       ?lua_checkstack@@YGHPAUlua_State@@H@Z 10001dd0 f   luaglue.obj
 0001:00000de0       ?lua_xmove@@YGXPAUlua_State@@0H@Z 10001de0 f   luaglue.obj
 0001:00000df0       ?lua_atpanic@@YGP6GHPAUlua_State@@@Z0P6GH0@Z@Z 10001df0 f   luaglue.obj
 0001:00000e00       ?lua_newthread@@YGPAUlua_State@@PAU1@@Z 10001e00 f   luaglue.obj
 0001:00000e10       ?lua_gettop@@YGHPAUlua_State@@@Z 10001e10 f   luaglue.obj
 0001:00000e20       ?lua_settop@@YGXPAUlua_State@@H@Z 10001e20 f   luaglue.obj
 0001:00000e30       ?lua_remove@@YGXPAUlua_State@@H@Z 10001e30 f   luaglue.obj
 0001:00000e40       ?lua_insert@@YGXPAUlua_State@@H@Z 10001e40 f   luaglue.obj
 0001:00000e50       ?lua_replace@@YGXPAUlua_State@@H@Z 10001e50 f   luaglue.obj
 0001:00000e60       ?lua_pushvalue@@YGXPAUlua_State@@H@Z 10001e60 f   luaglue.obj
 0001:00000e70       ?lua_type@@YGHPAUlua_State@@H@Z 10001e70 f   luaglue.obj
 0001:00000e80       ?lua_typename@@YGPBDPAUlua_State@@H@Z 10001e80 f   luaglue.obj
 0001:00000e90       ?lua_iscfunction@@YGHPAUlua_State@@H@Z 10001e90 f   luaglue.obj
 0001:00000ea0       ?lua_isnumber@@YGHPAUlua_State@@H@Z 10001ea0 f   luaglue.obj
 0001:00000eb0       ?lua_isstring@@YGHPAUlua_State@@H@Z 10001eb0 f   luaglue.obj
 0001:00000ec0       ?lua_isuserdata@@YGHPAUlua_State@@H@Z 10001ec0 f   luaglue.obj
 0001:00000ed0       ?lua_rawequal@@YGHPAUlua_State@@HH@Z 10001ed0 f   luaglue.obj
 0001:00000ee0       ?lua_equal@@YGHPAUlua_State@@HH@Z 10001ee0 f   luaglue.obj
 0001:00000ef0       ?lua_lessthan@@YGHPAUlua_State@@HH@Z 10001ef0 f   luaglue.obj
 0001:00000f00       ?lua_tonumber@@YGNPAUlua_State@@H@Z 10001f00 f   luaglue.obj
 0001:00000f10       ?lua_toboolean@@YGHPAUlua_State@@H@Z 10001f10 f   luaglue.obj
 0001:00000f20       ?lua_tolstring@@YGPBDPAUlua_State@@HPAI@Z 10001f20 f   luaglue.obj
 0001:00000f30       ?lua_objlen@@YGIPAUlua_State@@H@Z 10001f30 f   luaglue.obj
 0001:00000f40       ?lua_tocfunction@@YGP6GHPAUlua_State@@@Z0H@Z 10001f40 f   luaglue.obj
 0001:00000f50       ?lua_touserdata@@YGPAXPAUlua_State@@H@Z 10001f50 f   luaglue.obj
 0001:00000f60       ?lua_tothread@@YGPAUlua_State@@PAU1@H@Z 10001f60 f   luaglue.obj
 0001:00000f70       ?lua_topointer@@YGPBXPAUlua_State@@H@Z 10001f70 f   luaglue.obj
 0001:00000f80       ?lua_pushnil@@YGXPAUlua_State@@@Z 10001f80 f   luaglue.obj
 0001:00000f90       ?lua_pushnumber@@YGXPAUlua_State@@N@Z 10001f90 f   luaglue.obj
 0001:00000fa0       ?lua_pushinteger@@YGXPAUlua_State@@H@Z 10001fa0 f   luaglue.obj
 0001:00000fb0       ?lua_pushlstring@@YGXPAUlua_State@@PBDI@Z 10001fb0 f   luaglue.obj
 0001:00000fc0       ?lua_pushstring@@YGXPAUlua_State@@PBD@Z 10001fc0 f   luaglue.obj
 0001:00000fd0       ?lua_pushvfstring@@YGPBDPAUlua_State@@PBDPAD@Z 10001fd0 f   luaglue.obj
 0001:00000fe0       ?lua_pushcclosure@@YGXPAUlua_State@@P6GH0@ZH@Z 10001fe0 f   luaglue.obj
 0001:00000ff0       ?lua_pushboolean@@YGXPAUlua_State@@H@Z 10001ff0 f   luaglue.obj
 0001:00001000       ?lua_pushlightuserdata@@YGXPAUlua_State@@PAX@Z 10002000 f   luaglue.obj
 0001:00001010       ?lua_pushthread@@YGHPAUlua_State@@@Z 10002010 f   luaglue.obj
 0001:00001020       ?lua_gettable@@YGXPAUlua_State@@H@Z 10002020 f   luaglue.obj
 0001:00001030       ?lua_getfield@@YGXPAUlua_State@@HPBD@Z 10002030 f   luaglue.obj
 0001:00001040       ?lua_rawget@@YGXPAUlua_State@@H@Z 10002040 f   luaglue.obj
 0001:00001050       ?lua_rawgeti@@YGXPAUlua_State@@HH@Z 10002050 f   luaglue.obj
 0001:00001060       ?lua_createtable@@YGXPAUlua_State@@HH@Z 10002060 f   luaglue.obj
 0001:00001070       ?lua_getmetatable@@YGHPAUlua_State@@H@Z 10002070 f   luaglue.obj
 0001:00001080       ?lua_getfenv@@YGXPAUlua_State@@H@Z 10002080 f   luaglue.obj
 0001:00001090       ?lua_settable@@YGXPAUlua_State@@H@Z 10002090 f   luaglue.obj
 0001:000010a0       ?lua_setfield@@YGXPAUlua_State@@HPBD@Z 100020a0 f   luaglue.obj
 0001:000010b0       ?lua_rawset@@YGXPAUlua_State@@H@Z 100020b0 f   luaglue.obj
 0001:000010c0       ?lua_rawseti@@YGXPAUlua_State@@HH@Z 100020c0 f   luaglue.obj
 0001:000010d0       ?lua_setmetatable@@YGHPAUlua_State@@H@Z 100020d0 f   luaglue.obj
 0001:000010e0       ?lua_setfenv@@YGHPAUlua_State@@H@Z 100020e0 f   luaglue.obj
 0001:000010f0       ?lua_call@@YGXPAUlua_State@@HH@Z 100020f0 f   luaglue.obj
 0001:00001100       ?f_call@?A0xc8d640f7@@YGXPAUlua_State@@PAX@Z 10002100 f   luaglue.obj
 0001:00001110       ?lua_pcall@@YGHPAUlua_State@@HHH@Z 10002110 f   luaglue.obj
 0001:00001120       ?f_Ccall@?A0xc8d640f7@@YGXPAUlua_State@@PAX@Z 10002120 f   luaglue.obj
 0001:00001130       ?lua_cpcall@@YGHPAUlua_State@@P6GH0@ZPAX@Z 10002130 f   luaglue.obj
 0001:00001140       ?lua_load@@YGHPAUlua_State@@P6GPBD0PAXPAI@Z1PBD@Z 10002140 f   luaglue.obj
 0001:00001150       ?lua_dump@@YGHPAUlua_State@@P6GH0PBXIPAX@Z2@Z 10002150 f   luaglue.obj
 0001:00001160       ?lua_status@@YGHPAUlua_State@@@Z 10002160 f   luaglue.obj
 0001:00001170       ?lua_gc@@YGHPAUlua_State@@HH@Z 10002170 f   luaglue.obj
 0001:00001180       ?lua_error@@YGHPAUlua_State@@@Z 10002180 f   luaglue.obj
 0001:00001190       ?lua_next@@YGHPAUlua_State@@H@Z 10002190 f   luaglue.obj
 0001:000011a0       ?lua_concat@@YGXPAUlua_State@@H@Z 100021a0 f   luaglue.obj
 0001:000011b0       ?lua_getallocf@@YGP6GPAXPAX0II@ZPAUlua_State@@PAPAX@Z 100021b0 f   luaglue.obj
 0001:000011c0       ?lua_setallocf@@YGXPAUlua_State@@P6GPAXPAX1II@Z1@Z 100021c0 f   luaglue.obj
 0001:000011d0       ?lua_newuserdata@@YGPAXPAUlua_State@@I@Z 100021d0 f   luaglue.obj
 0001:000011e0       ?aux_upvalue@?A0xc8d640f7@@YGPBDPAUlua_TValue@@HPAPAU2@@Z 100021e0 f   luaglue.obj
 0001:000011f0       ?lua_getupvalue@@YGPBDPAUlua_State@@HH@Z 100021f0 f   luaglue.obj
 0001:00001200       ?lua_setupvalue@@YGPBDPAUlua_State@@HH@Z 10002200 f   luaglue.obj
 0001:00001210       ?luaL_argerror@@YGHPAUlua_State@@HPBD@Z 10002210 f   luaglue.obj
 0001:00001220       ?luaL_typerror@@YGHPAUlua_State@@HPBD@Z 10002220 f   luaglue.obj
 0001:00001230       ?tag_error@?A0xc8d640f7@@YGXPAUlua_State@@HH@Z 10002230 f   luaglue.obj
 0001:00001240       ?luaL_where@@YGXPAUlua_State@@H@Z 10002240 f   luaglue.obj
 0001:00001250       ?luaL_checkoption@@YGHPAUlua_State@@HPBDQBQBD@Z 10002250 f   luaglue.obj
 0001:00001260       ?luaL_newmetatable@@YGHPAUlua_State@@PBD@Z 10002260 f   luaglue.obj
 0001:00001270       ?luaL_checkudata@@YGPAXPAUlua_State@@HPBD@Z 10002270 f   luaglue.obj
 0001:00001280       ?luaL_checkstack@@YGXPAUlua_State@@HPBD@Z 10002280 f   luaglue.obj
 0001:00001290       ?luaL_checktype@@YGXPAUlua_State@@HH@Z 10002290 f   luaglue.obj
 0001:000012a0       ?luaL_checkany@@YGXPAUlua_State@@H@Z 100022a0 f   luaglue.obj
 0001:000012b0       ?luaL_checklstring@@YGPBDPAUlua_State@@HPAI@Z 100022b0 f   luaglue.obj
 0001:000012c0       ?luaL_optlstring@@YGPBDPAUlua_State@@HPBDPAI@Z 100022c0 f   luaglue.obj
 0001:000012d0       ?luaL_checknumber@@YGNPAUlua_State@@H@Z 100022d0 f   luaglue.obj
 0001:000012e0       ?luaL_optnumber@@YGNPAUlua_State@@HN@Z 100022e0 f   luaglue.obj
 0001:000012f0       ?luaL_checkinteger@@YGHPAUlua_State@@H@Z 100022f0 f   luaglue.obj
 0001:00001300       ?luaL_optinteger@@YGHPAUlua_State@@HH@Z 10002300 f   luaglue.obj
 0001:00001310       ?luaL_getmetafield@@YGHPAUlua_State@@HPBD@Z 10002310 f   luaglue.obj
 0001:00001320       ?luaL_callmeta@@YGHPAUlua_State@@HPBD@Z 10002320 f   luaglue.obj
 0001:00001330       ?luaL_register@@YGXPAUlua_State@@PBDPBUluaL_Reg@@@Z 10002330 f   luaglue.obj
 0001:00001340       ?libsize@?A0xc8d640f7@@YGHPBUluaL_Reg@@@Z 10002340 f   luaglue.obj
 0001:00001350       ?luaL_openlib@@YGXPAUlua_State@@PBDPBUluaL_Reg@@H@Z 10002350 f   luaglue.obj
 0001:00001360       ?luaL_gsub@@YGPBDPAUlua_State@@PBD11@Z 10002360 f   luaglue.obj
 0001:00001370       ?luaL_findtable@@YGPBDPAUlua_State@@HPBDH@Z 10002370 f   luaglue.obj
 0001:00001380       ?emptybuffer@?A0xc8d640f7@@YGHPAUluaL_Buffer@@@Z 10002380 f   luaglue.obj
 0001:00001390       ?adjuststack@?A0xc8d640f7@@YGXPAUluaL_Buffer@@@Z 10002390 f   luaglue.obj
 0001:000013a0       ?luaL_prepbuffer@@YGPADPAUluaL_Buffer@@@Z 100023a0 f   luaglue.obj
 0001:000013b0       ?luaL_addlstring@@YGXPAUluaL_Buffer@@PBDI@Z 100023b0 f   luaglue.obj
 0001:000013c0       ?luaL_addstring@@YGXPAUluaL_Buffer@@PBD@Z 100023c0 f   luaglue.obj
 0001:000013d0       ?luaL_pushresult@@YGXPAUluaL_Buffer@@@Z 100023d0 f   luaglue.obj
 0001:000013e0       ?luaL_addvalue@@YGXPAUluaL_Buffer@@@Z 100023e0 f   luaglue.obj
 0001:000013f0       ?luaL_buffinit@@YGXPAUlua_State@@PAUluaL_Buffer@@@Z 100023f0 f   luaglue.obj
 0001:00001400       ?luaL_ref@@YGHPAUlua_State@@H@Z 10002400 f   luaglue.obj
 0001:00001410       ?luaL_unref@@YGXPAUlua_State@@HH@Z 10002410 f   luaglue.obj
 0001:00001420       ?getF@?A0xc8d640f7@@YGPBDPAUlua_State@@PAXPAI@Z 10002420 f   luaglue.obj
 0001:00001430       ?errfile@?A0xc8d640f7@@YGHPAUlua_State@@PBDH@Z 10002430 f   luaglue.obj
 0001:00001440       ?luaL_loadfile@@YGHPAUlua_State@@PBD@Z 10002440 f   luaglue.obj
 0001:00001450       ?getS@?A0xc8d640f7@@YGPBDPAUlua_State@@PAXPAI@Z 10002450 f   luaglue.obj
 0001:00001460       ?luaL_loadbuffer@@YGHPAUlua_State@@PBDI1@Z 10002460 f   luaglue.obj
 0001:00001470       ?luaL_loadstring@@YGHPAUlua_State@@PBD@Z 10002470 f   luaglue.obj
 0001:00001480       ?l_alloc@?A0xc8d640f7@@YGPAXPAX0II@Z 10002480 f   luaglue.obj
 0001:00001490       ?panic@?A0xc8d640f7@@YGHPAUlua_State@@@Z 10002490 f   luaglue.obj
 0001:000014a0       ?luaL_newstate@@YGPAUlua_State@@XZ 100024a0 f   luaglue.obj
 0001:000014b0       ?luaB_print@?A0xc8d640f7@@YGHPAUlua_State@@@Z 100024b0 f   luaglue.obj
 0001:000014c0       ?luaB_tonumber@?A0xc8d640f7@@YGHPAUlua_State@@@Z 100024c0 f   luaglue.obj
 0001:000014d0       ?luaB_error@?A0xc8d640f7@@YGHPAUlua_State@@@Z 100024d0 f   luaglue.obj
 0001:000014e0       ?luaB_getmetatable@?A0xc8d640f7@@YGHPAUlua_State@@@Z 100024e0 f   luaglue.obj
 0001:000014f0       ?luaB_setmetatable@?A0xc8d640f7@@YGHPAUlua_State@@@Z 100024f0 f   luaglue.obj
 0001:00001500       ?getfunc@?A0xc8d640f7@@YGXPAUlua_State@@H@Z 10002500 f   luaglue.obj
 0001:00001510       ?luaB_getfenv@?A0xc8d640f7@@YGHPAUlua_State@@@Z 10002510 f   luaglue.obj
 0001:00001520       ?luaB_setfenv@?A0xc8d640f7@@YGHPAUlua_State@@@Z 10002520 f   luaglue.obj
 0001:00001530       ?luaB_rawequal@?A0xc8d640f7@@YGHPAUlua_State@@@Z 10002530 f   luaglue.obj
 0001:00001540       ?luaB_rawget@?A0xc8d640f7@@YGHPAUlua_State@@@Z 10002540 f   luaglue.obj
 0001:00001550       ?luaB_rawset@?A0xc8d640f7@@YGHPAUlua_State@@@Z 10002550 f   luaglue.obj
 0001:00001560       ?luaB_gcinfo@?A0xc8d640f7@@YGHPAUlua_State@@@Z 10002560 f   luaglue.obj
 0001:00001570       ?luaB_collectgarbage@?A0xc8d640f7@@YGHPAUlua_State@@@Z 10002570 f   luaglue.obj
 0001:00001580       ?luaB_type@?A0xc8d640f7@@YGHPAUlua_State@@@Z 10002580 f   luaglue.obj
 0001:00001590       ?luaB_next@?A0xc8d640f7@@YGHPAUlua_State@@@Z 10002590 f   luaglue.obj
 0001:000015a0       ?luaB_pairs@?A0xc8d640f7@@YGHPAUlua_State@@@Z 100025a0 f   luaglue.obj
 0001:000015b0       ?ipairsaux@?A0xc8d640f7@@YGHPAUlua_State@@@Z 100025b0 f   luaglue.obj
 0001:000015c0       ?luaB_ipairs@?A0xc8d640f7@@YGHPAUlua_State@@@Z 100025c0 f   luaglue.obj
 0001:000015d0       ?load_aux@?A0xc8d640f7@@YGHPAUlua_State@@H@Z 100025d0 f   luaglue.obj
 0001:000015e0       ?luaB_loadstring@?A0xc8d640f7@@YGHPAUlua_State@@@Z 100025e0 f   luaglue.obj
 0001:000015f0       ?luaB_loadfile@?A0xc8d640f7@@YGHPAUlua_State@@@Z 100025f0 f   luaglue.obj
 0001:00001600       ?generic_reader@?A0xc8d640f7@@YGPBDPAUlua_State@@PAXPAI@Z 10002600 f   luaglue.obj
 0001:00001610       ?luaB_load@?A0xc8d640f7@@YGHPAUlua_State@@@Z 10002610 f   luaglue.obj
 0001:00001620       ?luaB_dofile@?A0xc8d640f7@@YGHPAUlua_State@@@Z 10002620 f   luaglue.obj
 0001:00001630       ?luaB_assert@?A0xc8d640f7@@YGHPAUlua_State@@@Z 10002630 f   luaglue.obj
 0001:00001640       ?luaB_unpack@?A0xc8d640f7@@YGHPAUlua_State@@@Z 10002640 f   luaglue.obj
 0001:00001650       ?luaB_select@?A0xc8d640f7@@YGHPAUlua_State@@@Z 10002650 f   luaglue.obj
 0001:00001660       ?luaB_pcall@?A0xc8d640f7@@YGHPAUlua_State@@@Z 10002660 f   luaglue.obj
 0001:00001670       ?luaB_xpcall@?A0xc8d640f7@@YGHPAUlua_State@@@Z 10002670 f   luaglue.obj
 0001:00001680       ?luaB_tostring@?A0xc8d640f7@@YGHPAUlua_State@@@Z 10002680 f   luaglue.obj
 0001:00001690       ?luaB_newproxy@?A0xc8d640f7@@YGHPAUlua_State@@@Z 10002690 f   luaglue.obj
 0001:000016a0       ?auxresume@?A0xc8d640f7@@YGHPAUlua_State@@0H@Z 100026a0 f   luaglue.obj
 0001:000016b0       ?luaB_coresume@?A0xc8d640f7@@YGHPAUlua_State@@@Z 100026b0 f   luaglue.obj
 0001:000016c0       ?luaB_auxwrap@?A0xc8d640f7@@YGHPAUlua_State@@@Z 100026c0 f   luaglue.obj
 0001:000016d0       ?luaB_cocreate@?A0xc8d640f7@@YGHPAUlua_State@@@Z 100026d0 f   luaglue.obj
 0001:000016e0       ?luaB_cowrap@?A0xc8d640f7@@YGHPAUlua_State@@@Z 100026e0 f   luaglue.obj
 0001:000016f0       ?luaB_yield@?A0xc8d640f7@@YGHPAUlua_State@@@Z 100026f0 f   luaglue.obj
 0001:00001700       ?luaB_costatus@?A0xc8d640f7@@YGHPAUlua_State@@@Z 10002700 f   luaglue.obj
 0001:00001710       ?luaB_corunning@?A0xc8d640f7@@YGHPAUlua_State@@@Z 10002710 f   luaglue.obj
 0001:00001720       ?auxopen@?A0xc8d640f7@@YGXPAUlua_State@@PBDP6GH0@Z2@Z 10002720 f   luaglue.obj
 0001:00001730       ?base_open@?A0xc8d640f7@@YGXPAUlua_State@@@Z 10002730 f   luaglue.obj
 0001:00001740       ?luaopen_base@@YGHPAUlua_State@@@Z 10002740 f   luaglue.obj
 0001:00001750       ?isnumeral@?A0xc8d640f7@@YGHPAUexpdesc@@@Z 10002750 f   luaglue.obj
 0001:00001760       ?luaK_nil@@YGXPAUFuncState@@HH@Z 10002760 f   luaglue.obj
 0001:00001770       ?luaK_jump@@YGHPAUFuncState@@@Z 10002770 f   luaglue.obj
 0001:00001780       ?luaK_ret@@YGXPAUFuncState@@HH@Z 10002780 f   luaglue.obj
 0001:00001790       ?condjump@?A0xc8d640f7@@YGHPAUFuncState@@W4OpCode@@HHH@Z 10002790 f   luaglue.obj
 0001:000017a0       ?fixjump@?A0xc8d640f7@@YGXPAUFuncState@@HH@Z 100027a0 f   luaglue.obj
 0001:000017b0       ?luaK_getlabel@@YGHPAUFuncState@@@Z 100027b0 f   luaglue.obj
 0001:000017c0       ?getjump@?A0xc8d640f7@@YGHPAUFuncState@@H@Z 100027c0 f   luaglue.obj
 0001:000017d0       ?getjumpcontrol@?A0xc8d640f7@@YGPAIPAUFuncState@@H@Z 100027d0 f   luaglue.obj
 0001:000017e0       ?need_value@?A0xc8d640f7@@YGHPAUFuncState@@H@Z 100027e0 f   luaglue.obj
 0001:000017f0       ?patchtestreg@?A0xc8d640f7@@YGHPAUFuncState@@HH@Z 100027f0 f   luaglue.obj
 0001:00001800       ?removevalues@?A0xc8d640f7@@YGXPAUFuncState@@H@Z 10002800 f   luaglue.obj
 0001:00001810       ?patchlistaux@?A0xc8d640f7@@YGXPAUFuncState@@HHHH@Z 10002810 f   luaglue.obj
 0001:00001820       ?dischargejpc@?A0xc8d640f7@@YGXPAUFuncState@@@Z 10002820 f   luaglue.obj
 0001:00001830       ?luaK_patchlist@@YGXPAUFuncState@@HH@Z 10002830 f   luaglue.obj
 0001:00001840       ?luaK_patchtohere@@YGXPAUFuncState@@H@Z 10002840 f   luaglue.obj
 0001:00001850       ?luaK_concat@@YGXPAUFuncState@@PAHH@Z 10002850 f   luaglue.obj
 0001:00001860       ?luaK_checkstack@@YGXPAUFuncState@@H@Z 10002860 f   luaglue.obj
 0001:00001870       ?luaK_reserveregs@@YGXPAUFuncState@@H@Z 10002870 f   luaglue.obj
 0001:00001880       ?freereg@?A0xc8d640f7@@YGXPAUFuncState@@H@Z 10002880 f   luaglue.obj
 0001:00001890       ?freeexp@?A0xc8d640f7@@YGXPAUFuncState@@PAUexpdesc@@@Z 10002890 f   luaglue.obj
 0001:000018a0       ?addk@?A0xc8d640f7@@YGHPAUFuncState@@PAUlua_TValue@@1@Z 100028a0 f   luaglue.obj
 0001:000018b0       ?luaK_stringK@@YGHPAUFuncState@@PATTString@@@Z 100028b0 f   luaglue.obj
 0001:000018c0       ?luaK_numberK@@YGHPAUFuncState@@N@Z 100028c0 f   luaglue.obj
 0001:000018d0       ?boolK@?A0xc8d640f7@@YGHPAUFuncState@@H@Z 100028d0 f   luaglue.obj
 0001:000018e0       ?nilK@?A0xc8d640f7@@YGHPAUFuncState@@@Z 100028e0 f   luaglue.obj
 0001:000018f0       ?luaK_setreturns@@YGXPAUFuncState@@PAUexpdesc@@H@Z 100028f0 f   luaglue.obj
 0001:00001900       ?luaK_setoneret@@YGXPAUFuncState@@PAUexpdesc@@@Z 10002900 f   luaglue.obj
 0001:00001910       ?luaK_dischargevars@@YGXPAUFuncState@@PAUexpdesc@@@Z 10002910 f   luaglue.obj
 0001:00001920       ?code_label@?A0xc8d640f7@@YGHPAUFuncState@@HHH@Z 10002920 f   luaglue.obj
 0001:00001930       ?discharge2reg@?A0xc8d640f7@@YGXPAUFuncState@@PAUexpdesc@@H@Z 10002930 f   luaglue.obj
 0001:00001940       ?discharge2anyreg@?A0xc8d640f7@@YGXPAUFuncState@@PAUexpdesc@@@Z 10002940 f   luaglue.obj
 0001:00001950       ?exp2reg@?A0xc8d640f7@@YGXPAUFuncState@@PAUexpdesc@@H@Z 10002950 f   luaglue.obj
 0001:00001960       ?luaK_exp2nextreg@@YGXPAUFuncState@@PAUexpdesc@@@Z 10002960 f   luaglue.obj
 0001:00001970       ?luaK_exp2anyreg@@YGHPAUFuncState@@PAUexpdesc@@@Z 10002970 f   luaglue.obj
 0001:00001980       ?luaK_exp2val@@YGXPAUFuncState@@PAUexpdesc@@@Z 10002980 f   luaglue.obj
 0001:00001990       ?luaK_exp2RK@@YGHPAUFuncState@@PAUexpdesc@@@Z 10002990 f   luaglue.obj
 0001:000019a0       ?luaK_storevar@@YGXPAUFuncState@@PAUexpdesc@@1@Z 100029a0 f   luaglue.obj
 0001:000019b0       ?luaK_self@@YGXPAUFuncState@@PAUexpdesc@@1@Z 100029b0 f   luaglue.obj
 0001:000019c0       ?invertjump@?A0xc8d640f7@@YGXPAUFuncState@@PAUexpdesc@@@Z 100029c0 f   luaglue.obj
 0001:000019d0       ?jumponcond@?A0xc8d640f7@@YGHPAUFuncState@@PAUexpdesc@@H@Z 100029d0 f   luaglue.obj
 0001:000019e0       ?luaK_goiftrue@@YGXPAUFuncState@@PAUexpdesc@@@Z 100029e0 f   luaglue.obj
 0001:000019f0       ?luaK_goiffalse@?A0xc8d640f7@@YGXPAUFuncState@@PAUexpdesc@@@Z 100029f0 f   luaglue.obj
 0001:00001a00       ?codenot@?A0xc8d640f7@@YGXPAUFuncState@@PAUexpdesc@@@Z 10002a00 f   luaglue.obj
 0001:00001a10       ?luaK_indexed@@YGXPAUFuncState@@PAUexpdesc@@1@Z 10002a10 f   luaglue.obj
 0001:00001a20       ?constfolding@?A0xc8d640f7@@YGHW4OpCode@@PAUexpdesc@@1@Z 10002a20 f   luaglue.obj
 0001:00001a30       ?codearith@?A0xc8d640f7@@YGXPAUFuncState@@W4OpCode@@PAUexpdesc@@2@Z 10002a30 f   luaglue.obj
 0001:00001a40       ?codecomp@?A0xc8d640f7@@YGXPAUFuncState@@W4OpCode@@HPAUexpdesc@@2@Z 10002a40 f   luaglue.obj
 0001:00001a50       ?luaK_prefix@@YGXPAUFuncState@@W4UnOpr@@PAUexpdesc@@@Z 10002a50 f   luaglue.obj
 0001:00001a60       ?luaK_infix@@YGXPAUFuncState@@W4BinOpr@@PAUexpdesc@@@Z 10002a60 f   luaglue.obj
 0001:00001a70       ?luaK_posfix@@YGXPAUFuncState@@W4BinOpr@@PAUexpdesc@@2@Z 10002a70 f   luaglue.obj
 0001:00001a80       ?luaK_fixline@@YGXPAUFuncState@@H@Z 10002a80 f   luaglue.obj
 0001:00001a90       ?luaK_code@?A0xc8d640f7@@YGHPAUFuncState@@IH@Z 10002a90 f   luaglue.obj
 0001:00001aa0       ?luaK_codeABC@@YGHPAUFuncState@@W4OpCode@@HHH@Z 10002aa0 f   luaglue.obj
 0001:00001ab0       ?luaK_codeABx@@YGHPAUFuncState@@W4OpCode@@HI@Z 10002ab0 f   luaglue.obj
 0001:00001ac0       ?luaK_setlist@@YGXPAUFuncState@@HHH@Z 10002ac0 f   luaglue.obj
 0001:00001ad0       ?db_getregistry@?A0xc8d640f7@@YGHPAUlua_State@@@Z 10002ad0 f   luaglue.obj
 0001:00001ae0       ?db_getmetatable@?A0xc8d640f7@@YGHPAUlua_State@@@Z 10002ae0 f   luaglue.obj
 0001:00001af0       ?db_setmetatable@?A0xc8d640f7@@YGHPAUlua_State@@@Z 10002af0 f   luaglue.obj
 0001:00001b00       ?db_getfenv@?A0xc8d640f7@@YGHPAUlua_State@@@Z 10002b00 f   luaglue.obj
 0001:00001b10       ?db_setfenv@?A0xc8d640f7@@YGHPAUlua_State@@@Z 10002b10 f   luaglue.obj
 0001:00001b20       ?settabss@?A0xc8d640f7@@YGXPAUlua_State@@PBD1@Z 10002b20 f   luaglue.obj
 0001:00001b30       ?settabsi@?A0xc8d640f7@@YGXPAUlua_State@@PBDH@Z 10002b30 f   luaglue.obj
 0001:00001b40       ?getthread@?A0xc8d640f7@@YGPAUlua_State@@PAU2@PAH@Z 10002b40 f   luaglue.obj
 0001:00001b50       ?treatstackoption@?A0xc8d640f7@@YGXPAUlua_State@@0PBD@Z 10002b50 f   luaglue.obj
 0001:00001b60       ?db_getinfo@?A0xc8d640f7@@YGHPAUlua_State@@@Z 10002b60 f   luaglue.obj
 0001:00001b70       ?db_getlocal@?A0xc8d640f7@@YGHPAUlua_State@@@Z 10002b70 f   luaglue.obj
 0001:00001b80       ?db_setlocal@?A0xc8d640f7@@YGHPAUlua_State@@@Z 10002b80 f   luaglue.obj
 0001:00001b90       ?auxupvalue@?A0xc8d640f7@@YGHPAUlua_State@@H@Z 10002b90 f   luaglue.obj
 0001:00001ba0       ?db_getupvalue@?A0xc8d640f7@@YGHPAUlua_State@@@Z 10002ba0 f   luaglue.obj
 0001:00001bb0       ?db_setupvalue@?A0xc8d640f7@@YGHPAUlua_State@@@Z 10002bb0 f   luaglue.obj
 0001:00001bc0       ?hookf@?A0xc8d640f7@@YGXPAUlua_State@@PAUlua_Debug@@@Z 10002bc0 f   luaglue.obj
 0001:00001bd0       ?makemask@?A0xc8d640f7@@YGHPBDH@Z 10002bd0 f   luaglue.obj
 0001:00001be0       ?unmakemask@?A0xc8d640f7@@YGPADHPAD@Z 10002be0 f   luaglue.obj
 0001:00001bf0       ?gethooktable@?A0xc8d640f7@@YGXPAUlua_State@@@Z 10002bf0 f   luaglue.obj
 0001:00001c00       ?db_sethook@?A0xc8d640f7@@YGHPAUlua_State@@@Z 10002c00 f   luaglue.obj
 0001:00001c10       ?db_gethook@?A0xc8d640f7@@YGHPAUlua_State@@@Z 10002c10 f   luaglue.obj
 0001:00001c20       ?db_debug@?A0xc8d640f7@@YGHPAUlua_State@@@Z 10002c20 f   luaglue.obj
 0001:00001c30       ?db_errorfb@?A0xc8d640f7@@YGHPAUlua_State@@@Z 10002c30 f   luaglue.obj
 0001:00001c40       ?luaopen_debug@@YGHPAUlua_State@@@Z 10002c40 f   luaglue.obj
 0001:00001c50       ?currentpc@?A0xc8d640f7@@YGHPAUlua_State@@PAUCallInfo@@@Z 10002c50 f   luaglue.obj
 0001:00001c60       ?currentline@?A0xc8d640f7@@YGHPAUlua_State@@PAUCallInfo@@@Z 10002c60 f   luaglue.obj
 0001:00001c70       ?lua_sethook@@YGHPAUlua_State@@P6GX0PAUlua_Debug@@@ZHH@Z 10002c70 f   luaglue.obj
 0001:00001c80       ?lua_gethook@@YGP6GXPAUlua_State@@PAUlua_Debug@@@Z0@Z 10002c80 f   luaglue.obj
 0001:00001c90       ?lua_gethookmask@@YGHPAUlua_State@@@Z 10002c90 f   luaglue.obj
 0001:00001ca0       ?lua_gethookcount@@YGHPAUlua_State@@@Z 10002ca0 f   luaglue.obj
 0001:00001cb0       ?lua_getstack@@YGHPAUlua_State@@HPAUlua_Debug@@@Z 10002cb0 f   luaglue.obj
 0001:00001cc0       ?getluaproto@?A0xc8d640f7@@YGPAUProto@@PAUCallInfo@@@Z 10002cc0 f   luaglue.obj
 0001:00001cd0       ?findlocal@?A0xc8d640f7@@YGPBDPAUlua_State@@PAUCallInfo@@H@Z 10002cd0 f   luaglue.obj
 0001:00001ce0       ?lua_getlocal@@YGPBDPAUlua_State@@PBUlua_Debug@@H@Z 10002ce0 f   luaglue.obj
 0001:00001cf0       ?lua_setlocal@@YGPBDPAUlua_State@@PBUlua_Debug@@H@Z 10002cf0 f   luaglue.obj
 0001:00001d00       ?funcinfo@?A0xc8d640f7@@YGXPAUlua_Debug@@PATClosure@@@Z 10002d00 f   luaglue.obj
 0001:00001d10       ?info_tailcall@?A0xc8d640f7@@YGXPAUlua_Debug@@@Z 10002d10 f   luaglue.obj
 0001:00001d20       ?collectvalidlines@?A0xc8d640f7@@YGXPAUlua_State@@PATClosure@@@Z 10002d20 f   luaglue.obj
 0001:00001d30       ?auxgetinfo@?A0xc8d640f7@@YGHPAUlua_State@@PBDPAUlua_Debug@@PATClosure@@PAUCallInfo@@@Z 10002d30 f   luaglue.obj
 0001:00001d40       ?lua_getinfo@@YGHPAUlua_State@@PBDPAUlua_Debug@@@Z 10002d40 f   luaglue.obj
 0001:00001d50       ?precheck@?A0xc8d640f7@@YGHPBUProto@@@Z 10002d50 f   luaglue.obj
 0001:00001d60       ?luaG_checkopenop@@YGHI@Z  10002d60 f   luaglue.obj
 0001:00001d70       ?checkArgMode@?A0xc8d640f7@@YGHPBUProto@@HW4OpArgMask@@@Z 10002d70 f   luaglue.obj
 0001:00001d80       ?symbexec@?A0xc8d640f7@@YGIPBUProto@@HH@Z 10002d80 f   luaglue.obj
 0001:00001d90       ?luaG_checkcode@@YGHPBUProto@@@Z 10002d90 f   luaglue.obj
 0001:00001da0       ?kname@?A0xc8d640f7@@YGPBDPAUProto@@H@Z 10002da0 f   luaglue.obj
 0001:00001db0       ?getobjname@?A0xc8d640f7@@YGPBDPAUlua_State@@PAUCallInfo@@HPAPBD@Z 10002db0 f   luaglue.obj
 0001:00001dc0       ?getfuncname@?A0xc8d640f7@@YGPBDPAUlua_State@@PAUCallInfo@@PAPBD@Z 10002dc0 f   luaglue.obj
 0001:00001dd0       ?isinstack@?A0xc8d640f7@@YGHPAUCallInfo@@PBUlua_TValue@@@Z 10002dd0 f   luaglue.obj
 0001:00001de0       ?luaG_typeerror@@YGXPAUlua_State@@PBUlua_TValue@@PBD@Z 10002de0 f   luaglue.obj
 0001:00001df0       ?luaG_concaterror@@YGXPAUlua_State@@PAUlua_TValue@@1@Z 10002df0 f   luaglue.obj
 0001:00001e00       ?luaG_aritherror@@YGXPAUlua_State@@PBUlua_TValue@@1@Z 10002e00 f   luaglue.obj
 0001:00001e10       ?luaG_ordererror@@YGHPAUlua_State@@PBUlua_TValue@@1@Z 10002e10 f   luaglue.obj
 0001:00001e20       ?addinfo@?A0xc8d640f7@@YGXPAUlua_State@@PBD@Z 10002e20 f   luaglue.obj
 0001:00001e30       ?luaG_errormsg@@YGXPAUlua_State@@@Z 10002e30 f   luaglue.obj
 0001:00001e40       ?luaD_seterrorobj@@YGXPAUlua_State@@HPAUlua_TValue@@@Z 10002e40 f   luaglue.obj
 0001:00001e50       ?restore_stack_limit@?A0xc8d640f7@@YGXPAUlua_State@@@Z 10002e50 f   luaglue.obj
 0001:00001e60       ?resetstack@?A0xc8d640f7@@YGXPAUlua_State@@H@Z 10002e60 f   luaglue.obj
 0001:00001e70       ?luaD_throw@@YGXPAUlua_State@@H@Z 10002e70 f   luaglue.obj
 0001:00001e80       ?luaD_rawrunprotected@@YGHPAUlua_State@@P6GX0PAX@Z1@Z 10002e80 f   luaglue.obj
 0001:00001e90       ?correctstack@?A0xc8d640f7@@YGXPAUlua_State@@PAUlua_TValue@@@Z 10002e90 f   luaglue.obj
 0001:00001ea0       ?luaD_reallocstack@@YGXPAUlua_State@@H@Z 10002ea0 f   luaglue.obj
 0001:00001eb0       ?luaD_reallocCI@@YGXPAUlua_State@@H@Z 10002eb0 f   luaglue.obj
 0001:00001ec0       ?luaD_growstack@@YGXPAUlua_State@@H@Z 10002ec0 f   luaglue.obj
 0001:00001ed0       ?growCI@?A0xc8d640f7@@YGPAUCallInfo@@PAUlua_State@@@Z 10002ed0 f   luaglue.obj
 0001:00001ee0       ?luaD_callhook@@YGXPAUlua_State@@HH@Z 10002ee0 f   luaglue.obj
 0001:00001ef0       ?adjust_varargs@?A0xc8d640f7@@YGPAUlua_TValue@@PAUlua_State@@PAUProto@@H@Z 10002ef0 f   luaglue.obj
 0001:00001f00       ?tryfuncTM@?A0xc8d640f7@@YGPAUlua_TValue@@PAUlua_State@@PAU2@@Z 10002f00 f   luaglue.obj
 0001:00001f10       ?luaD_precall@@YGHPAUlua_State@@PAUlua_TValue@@H@Z 10002f10 f   luaglue.obj
 0001:00001f20       ?callrethooks@?A0xc8d640f7@@YGPAUlua_TValue@@PAUlua_State@@PAU2@@Z 10002f20 f   luaglue.obj
 0001:00001f30       ?luaD_poscall@@YGHPAUlua_State@@PAUlua_TValue@@@Z 10002f30 f   luaglue.obj
 0001:00001f40       ?luaD_call@@YGXPAUlua_State@@PAUlua_TValue@@H@Z 10002f40 f   luaglue.obj
 0001:00001f50       ?resume@?A0xc8d640f7@@YGXPAUlua_State@@PAX@Z 10002f50 f   luaglue.obj
 0001:00001f60       ?resume_error@?A0xc8d640f7@@YGHPAUlua_State@@PBD@Z 10002f60 f   luaglue.obj
 0001:00001f70       ?lua_resume@@YGHPAUlua_State@@H@Z 10002f70 f   luaglue.obj
 0001:00001f80       ?lua_yield@@YGHPAUlua_State@@H@Z 10002f80 f   luaglue.obj
 0001:00001f90       ?luaD_pcall@@YGHPAUlua_State@@P6GX0PAX@Z1HH@Z 10002f90 f   luaglue.obj
 0001:00001fa0       ?f_parser@?A0xc8d640f7@@YGXPAUlua_State@@PAX@Z 10002fa0 f   luaglue.obj
 0001:00001fb0       ?luaD_protectedparser@@YGHPAUlua_State@@PAUZio@@PBD@Z 10002fb0 f   luaglue.obj
 0001:00001fc0       ?DumpBlock@?A0xc8d640f7@@YGXPBXIPAUDumpState@@@Z 10002fc0 f   luaglue.obj
 0001:00001fd0       ?DumpChar@?A0xc8d640f7@@YGXHPAUDumpState@@@Z 10002fd0 f   luaglue.obj
 0001:00001fe0       ?DumpInt@?A0xc8d640f7@@YGXHPAUDumpState@@@Z 10002fe0 f   luaglue.obj
 0001:00001ff0       ?DumpNumber@?A0xc8d640f7@@YGXNPAUDumpState@@@Z 10002ff0 f   luaglue.obj
 0001:00002000       ?DumpVector@?A0xc8d640f7@@YGXPBXHIPAUDumpState@@@Z 10003000 f   luaglue.obj
 0001:00002010       ?DumpString@?A0xc8d640f7@@YGXPBTTString@@PAUDumpState@@@Z 10003010 f   luaglue.obj
 0001:00002020       ?DumpConstants@?A0xc8d640f7@@YGXPBUProto@@PAUDumpState@@@Z 10003020 f   luaglue.obj
 0001:00002030       ?DumpDebug@?A0xc8d640f7@@YGXPBUProto@@PAUDumpState@@@Z 10003030 f   luaglue.obj
 0001:00002040       ?DumpFunction@?A0xc8d640f7@@YGXPBUProto@@PBTTString@@PAUDumpState@@@Z 10003040 f   luaglue.obj
 0001:00002050       ?DumpHeader@?A0xc8d640f7@@YGXPAUDumpState@@@Z 10003050 f   luaglue.obj
 0001:00002060       ?luaU_dump@@YGHPAUlua_State@@PBUProto@@P6GH0PBXIPAX@Z3H@Z 10003060 f   luaglue.obj
 0001:00002070       ?luaF_newCclosure@@YGPATClosure@@PAUlua_State@@HPAUTable@@@Z 10003070 f   luaglue.obj
 0001:00002080       ?luaF_newLclosure@@YGPATClosure@@PAUlua_State@@HPAUTable@@@Z 10003080 f   luaglue.obj
 0001:00002090       ?luaF_newupval@@YGPAUUpVal@@PAUlua_State@@@Z 10003090 f   luaglue.obj
 0001:000020a0       ?luaF_findupval@@YGPAUUpVal@@PAUlua_State@@PAUlua_TValue@@@Z 100030a0 f   luaglue.obj
 0001:000020b0       ?unlinkupval@?A0xc8d640f7@@YGXPAUUpVal@@@Z 100030b0 f   luaglue.obj
 0001:000020c0       ?luaF_freeupval@@YGXPAUlua_State@@PAUUpVal@@@Z 100030c0 f   luaglue.obj
 0001:000020d0       ?luaF_close@@YGXPAUlua_State@@PAUlua_TValue@@@Z 100030d0 f   luaglue.obj
 0001:000020e0       ?luaF_newproto@@YGPAUProto@@PAUlua_State@@@Z 100030e0 f   luaglue.obj
 0001:000020f0       ?luaF_freeproto@@YGXPAUlua_State@@PAUProto@@@Z 100030f0 f   luaglue.obj
 0001:00002100       ?luaF_freeclosure@@YGXPAUlua_State@@PATClosure@@@Z 10003100 f   luaglue.obj
 0001:00002110       ?luaF_getlocalname@@YGPBDPBUProto@@HH@Z 10003110 f   luaglue.obj
 0001:00002120       ?removeentry@?A0xc8d640f7@@YGXPAUNode@@@Z 10003120 f   luaglue.obj
 0001:00002130       ?reallymarkobject@?A0xc8d640f7@@YGXPAUglobal_State@@PATGCObject@@@Z 10003130 f   luaglue.obj
 0001:00002140       ?marktmu@?A0xc8d640f7@@YGXPAUglobal_State@@@Z 10003140 f   luaglue.obj
 0001:00002150       ?luaC_separateudata@@YGIPAUlua_State@@H@Z 10003150 f   luaglue.obj
 0001:00002160       ?traversetable@?A0xc8d640f7@@YGHPAUglobal_State@@PAUTable@@@Z 10003160 f   luaglue.obj
 0001:00002170       ?traverseproto@?A0xc8d640f7@@YGXPAUglobal_State@@PAUProto@@@Z 10003170 f   luaglue.obj
 0001:00002180       ?traverseclosure@?A0xc8d640f7@@YGXPAUglobal_State@@PATClosure@@@Z 10003180 f   luaglue.obj
 0001:00002190       ?checkstacksizes@?A0xc8d640f7@@YGXPAUlua_State@@PAUlua_TValue@@@Z 10003190 f   luaglue.obj
 0001:000021a0       ?traversestack@?A0xc8d640f7@@YGXPAUglobal_State@@PAUlua_State@@@Z 100031a0 f   luaglue.obj
 0001:000021b0       ?propagatemark@?A0xc8d640f7@@YGHPAUglobal_State@@@Z 100031b0 f   luaglue.obj
 0001:000021c0       ?propagateall@?A0xc8d640f7@@YGIPAUglobal_State@@@Z 100031c0 f   luaglue.obj
 0001:000021d0       ?iscleared@?A0xc8d640f7@@YGHPBUlua_TValue@@H@Z 100031d0 f   luaglue.obj
 0001:000021e0       ?cleartable@?A0xc8d640f7@@YGXPATGCObject@@@Z 100031e0 f   luaglue.obj
 0001:000021f0       ?freeobj@?A0xc8d640f7@@YGXPAUlua_State@@PATGCObject@@@Z 100031f0 f   luaglue.obj
 0001:00002200       ?sweeplist@?A0xc8d640f7@@YGPAPATGCObject@@PAUlua_State@@PAPAT2@I@Z 10003200 f   luaglue.obj
 0001:00002210       ?checkSizes@?A0xc8d640f7@@YGXPAUlua_State@@@Z 10003210 f   luaglue.obj
 0001:00002220       ?GCTM@?A0xc8d640f7@@YGXPAUlua_State@@@Z 10003220 f   luaglue.obj
 0001:00002230       ?luaC_callGCTM@@YGXPAUlua_State@@@Z 10003230 f   luaglue.obj
 0001:00002240       ?luaC_freeall@@YGXPAUlua_State@@@Z 10003240 f   luaglue.obj
 0001:00002250       ?markmt@?A0xc8d640f7@@YGXPAUglobal_State@@@Z 10003250 f   luaglue.obj
 0001:00002260       ?markroot@?A0xc8d640f7@@YGXPAUlua_State@@@Z 10003260 f   luaglue.obj
 0001:00002270       ?remarkupvals@?A0xc8d640f7@@YGXPAUglobal_State@@@Z 10003270 f   luaglue.obj
 0001:00002280       ?atomic@?A0xc8d640f7@@YGXPAUlua_State@@@Z 10003280 f   luaglue.obj
 0001:00002290       ?singlestep@?A0xc8d640f7@@YGHPAUlua_State@@@Z 10003290 f   luaglue.obj
 0001:000022a0       ?luaC_step@@YGXPAUlua_State@@@Z 100032a0 f   luaglue.obj
 0001:000022b0       ?luaC_fullgc@@YGXPAUlua_State@@@Z 100032b0 f   luaglue.obj
 0001:000022c0       ?luaC_barrierf@@YGXPAUlua_State@@PATGCObject@@1@Z 100032c0 f   luaglue.obj
 0001:000022d0       ?luaC_barrierback@@YGXPAUlua_State@@PAUTable@@@Z 100032d0 f   luaglue.obj
 0001:000022e0       ?luaC_link@@YGXPAUlua_State@@PATGCObject@@E@Z 100032e0 f   luaglue.obj
 0001:000022f0       ?luaC_linkupval@@YGXPAUlua_State@@PAUUpVal@@@Z 100032f0 f   luaglue.obj
 0001:00002300       ?luaL_openlibs@@YGXPAUlua_State@@@Z 10003300 f   luaglue.obj
 0001:00002310       ?pushresult@?A0xc8d640f7@@YGHPAUlua_State@@HPBD@Z 10003310 f   luaglue.obj
 0001:00002320       ?fileerror@?A0xc8d640f7@@YGXPAUlua_State@@HPBD@Z 10003320 f   luaglue.obj
 0001:00002330       ?io_type@?A0xc8d640f7@@YGHPAUlua_State@@@Z 10003330 f   luaglue.obj
 0001:00002340       ?tofile@?A0xc8d640f7@@YGPAU_iobuf@@PAUlua_State@@@Z 10003340 f   luaglue.obj
 0001:00002350       ?newfile@?A0xc8d640f7@@YGPAPAU_iobuf@@PAUlua_State@@@Z 10003350 f   luaglue.obj
 0001:00002360       ?io_pclose@?A0xc8d640f7@@YGHPAUlua_State@@@Z 10003360 f   luaglue.obj
 0001:00002370       ?io_fclose@?A0xc8d640f7@@YGHPAUlua_State@@@Z 10003370 f   luaglue.obj
 0001:00002380       ?aux_close@?A0xc8d640f7@@YGHPAUlua_State@@@Z 10003380 f   luaglue.obj
 0001:00002390       ?io_close@?A0xc8d640f7@@YGHPAUlua_State@@@Z 10003390 f   luaglue.obj
 0001:000023a0       ?io_gc@?A0xc8d640f7@@YGHPAUlua_State@@@Z 100033a0 f   luaglue.obj
 0001:000023b0       ?io_tostring@?A0xc8d640f7@@YGHPAUlua_State@@@Z 100033b0 f   luaglue.obj
 0001:000023c0       ?io_open@?A0xc8d640f7@@YGHPAUlua_State@@@Z 100033c0 f   luaglue.obj
 0001:000023d0       ?io_popen@?A0xc8d640f7@@YGHPAUlua_State@@@Z 100033d0 f   luaglue.obj
 0001:000023e0       ?io_tmpfile@?A0xc8d640f7@@YGHPAUlua_State@@@Z 100033e0 f   luaglue.obj
 0001:000023f0       ?getiofile@?A0xc8d640f7@@YGPAU_iobuf@@PAUlua_State@@H@Z 100033f0 f   luaglue.obj
 0001:00002400       ?g_iofile@?A0xc8d640f7@@YGHPAUlua_State@@HPBD@Z 10003400 f   luaglue.obj
 0001:00002410       ?io_input@?A0xc8d640f7@@YGHPAUlua_State@@@Z 10003410 f   luaglue.obj
 0001:00002420       ?io_output@?A0xc8d640f7@@YGHPAUlua_State@@@Z 10003420 f   luaglue.obj
 0001:00002430       ?aux_lines@?A0xc8d640f7@@YGXPAUlua_State@@HH@Z 10003430 f   luaglue.obj
 0001:00002440       ?f_lines@?A0xc8d640f7@@YGHPAUlua_State@@@Z 10003440 f   luaglue.obj
 0001:00002450       ?io_lines@?A0xc8d640f7@@YGHPAUlua_State@@@Z 10003450 f   luaglue.obj
 0001:00002460       ?read_number@?A0xc8d640f7@@YGHPAUlua_State@@PAU_iobuf@@@Z 10003460 f   luaglue.obj
 0001:00002470       ?test_eof@?A0xc8d640f7@@YGHPAUlua_State@@PAU_iobuf@@@Z 10003470 f   luaglue.obj
 0001:00002480       ?read_line@?A0xc8d640f7@@YGHPAUlua_State@@PAU_iobuf@@@Z 10003480 f   luaglue.obj
 0001:00002490       ?read_chars@?A0xc8d640f7@@YGHPAUlua_State@@PAU_iobuf@@I@Z 10003490 f   luaglue.obj
 0001:000024a0       ?g_read@?A0xc8d640f7@@YGHPAUlua_State@@PAU_iobuf@@H@Z 100034a0 f   luaglue.obj
 0001:000024b0       ?io_read@?A0xc8d640f7@@YGHPAUlua_State@@@Z 100034b0 f   luaglue.obj
 0001:000024c0       ?f_read@?A0xc8d640f7@@YGHPAUlua_State@@@Z 100034c0 f   luaglue.obj
 0001:000024d0       ?io_readline@?A0xc8d640f7@@YGHPAUlua_State@@@Z 100034d0 f   luaglue.obj
 0001:000024e0       ?g_write@?A0xc8d640f7@@YGHPAUlua_State@@PAU_iobuf@@H@Z 100034e0 f   luaglue.obj
 0001:000024f0       ?io_write@?A0xc8d640f7@@YGHPAUlua_State@@@Z 100034f0 f   luaglue.obj
 0001:00002500       ?f_write@?A0xc8d640f7@@YGHPAUlua_State@@@Z 10003500 f   luaglue.obj
 0001:00002510       ?f_seek@?A0xc8d640f7@@YGHPAUlua_State@@@Z 10003510 f   luaglue.obj
 0001:00002520       ?f_setvbuf@?A0xc8d640f7@@YGHPAUlua_State@@@Z 10003520 f   luaglue.obj
 0001:00002530       ?io_flush@?A0xc8d640f7@@YGHPAUlua_State@@@Z 10003530 f   luaglue.obj
 0001:00002540       ?f_flush@?A0xc8d640f7@@YGHPAUlua_State@@@Z 10003540 f   luaglue.obj
 0001:00002550       ?createmeta@?A0xc8d640f7@@YGXPAUlua_State@@@Z 10003550 f   luaglue.obj
 0001:00002560       ?createstdfile@?A0xc8d640f7@@YGXPAUlua_State@@PAU_iobuf@@HPBD@Z 10003560 f   luaglue.obj
 0001:00002570       ?luaopen_io@@YGHPAUlua_State@@@Z 10003570 f   luaglue.obj
 0001:00002580       ?save@?A0xc8d640f7@@YGXPAULexState@@H@Z 10003580 f   luaglue.obj
 0001:00002590       ?luaX_init@@YGXPAUlua_State@@@Z 10003590 f   luaglue.obj
 0001:000025a0       ?luaX_token2str@@YGPBDPAULexState@@H@Z 100035a0 f   luaglue.obj
 0001:000025b0       ?txtToken@?A0xc8d640f7@@YGPBDPAULexState@@H@Z 100035b0 f   luaglue.obj
 0001:000025c0       ?luaX_lexerror@@YGXPAULexState@@PBDH@Z 100035c0 f   luaglue.obj
 0001:000025d0       ?luaX_syntaxerror@@YGXPAULexState@@PBD@Z 100035d0 f   luaglue.obj
 0001:000025e0       ?luaX_newstring@@YGPATTString@@PAULexState@@PBDI@Z 100035e0 f   luaglue.obj
 0001:000025f0       ?inclinenumber@?A0xc8d640f7@@YGXPAULexState@@@Z 100035f0 f   luaglue.obj
 0001:00002600       ?luaX_setinput@@YGXPAUlua_State@@PAULexState@@PAUZio@@PATTString@@@Z 10003600 f   luaglue.obj
 0001:00002610       ?check_next@?A0xc8d640f7@@YGHPAULexState@@PBD@Z 10003610 f   luaglue.obj
 0001:00002620       ?buffreplace@?A0xc8d640f7@@YGXPAULexState@@DD@Z 10003620 f   luaglue.obj
 0001:00002630       ?trydecpoint@?A0xc8d640f7@@YGXPAULexState@@PATSemInfo@@@Z 10003630 f   luaglue.obj
 0001:00002640       ?read_numeral@?A0xc8d640f7@@YGXPAULexState@@PATSemInfo@@@Z 10003640 f   luaglue.obj
 0001:00002650       ?skip_sep@?A0xc8d640f7@@YGHPAULexState@@@Z 10003650 f   luaglue.obj
 0001:00002660       ?read_long_string@?A0xc8d640f7@@YGXPAULexState@@PATSemInfo@@H@Z 10003660 f   luaglue.obj
 0001:00002670       ?read_string@?A0xc8d640f7@@YGXPAULexState@@HPATSemInfo@@@Z 10003670 f   luaglue.obj
 0001:00002680       ?llex@?A0xc8d640f7@@YGHPAULexState@@PATSemInfo@@@Z 10003680 f   luaglue.obj
 0001:00002690       ?luaX_next@@YGXPAULexState@@@Z 10003690 f   luaglue.obj
 0001:000026a0       ?luaX_lookahead@@YGXPAULexState@@@Z 100036a0 f   luaglue.obj
 0001:000026b0       ?math_abs@?A0xc8d640f7@@YGHPAUlua_State@@@Z 100036b0 f   luaglue.obj
 0001:000026c0       ?math_sin@?A0xc8d640f7@@YGHPAUlua_State@@@Z 100036c0 f   luaglue.obj
 0001:000026d0       ?math_sinh@?A0xc8d640f7@@YGHPAUlua_State@@@Z 100036d0 f   luaglue.obj
 0001:000026e0       ?math_cos@?A0xc8d640f7@@YGHPAUlua_State@@@Z 100036e0 f   luaglue.obj
 0001:000026f0       ?math_cosh@?A0xc8d640f7@@YGHPAUlua_State@@@Z 100036f0 f   luaglue.obj
 0001:00002700       ?math_tan@?A0xc8d640f7@@YGHPAUlua_State@@@Z 10003700 f   luaglue.obj
 0001:00002710       ?math_tanh@?A0xc8d640f7@@YGHPAUlua_State@@@Z 10003710 f   luaglue.obj
 0001:00002720       ?math_asin@?A0xc8d640f7@@YGHPAUlua_State@@@Z 10003720 f   luaglue.obj
 0001:00002730       ?math_acos@?A0xc8d640f7@@YGHPAUlua_State@@@Z 10003730 f   luaglue.obj
 0001:00002740       ?math_atan@?A0xc8d640f7@@YGHPAUlua_State@@@Z 10003740 f   luaglue.obj
 0001:00002750       ?math_atan2@?A0xc8d640f7@@YGHPAUlua_State@@@Z 10003750 f   luaglue.obj
 0001:00002760       ?math_ceil@?A0xc8d640f7@@YGHPAUlua_State@@@Z 10003760 f   luaglue.obj
 0001:00002770       ?math_floor@?A0xc8d640f7@@YGHPAUlua_State@@@Z 10003770 f   luaglue.obj
 0001:00002780       ?math_fmod@?A0xc8d640f7@@YGHPAUlua_State@@@Z 10003780 f   luaglue.obj
 0001:00002790       ?math_modf@?A0xc8d640f7@@YGHPAUlua_State@@@Z 10003790 f   luaglue.obj
 0001:000027a0       ?math_sqrt@?A0xc8d640f7@@YGHPAUlua_State@@@Z 100037a0 f   luaglue.obj
 0001:000027b0       ?math_pow@?A0xc8d640f7@@YGHPAUlua_State@@@Z 100037b0 f   luaglue.obj
 0001:000027c0       ?math_log@?A0xc8d640f7@@YGHPAUlua_State@@@Z 100037c0 f   luaglue.obj
 0001:000027d0       ?math_log10@?A0xc8d640f7@@YGHPAUlua_State@@@Z 100037d0 f   luaglue.obj
 0001:000027e0       ?math_exp@?A0xc8d640f7@@YGHPAUlua_State@@@Z 100037e0 f   luaglue.obj
 0001:000027f0       ?math_deg@?A0xc8d640f7@@YGHPAUlua_State@@@Z 100037f0 f   luaglue.obj
 0001:00002800       ?math_rad@?A0xc8d640f7@@YGHPAUlua_State@@@Z 10003800 f   luaglue.obj
 0001:00002810       ?math_frexp@?A0xc8d640f7@@YGHPAUlua_State@@@Z 10003810 f   luaglue.obj
 0001:00002820       ?math_ldexp@?A0xc8d640f7@@YGHPAUlua_State@@@Z 10003820 f   luaglue.obj
 0001:00002830       ?math_min@?A0xc8d640f7@@YGHPAUlua_State@@@Z 10003830 f   luaglue.obj
 0001:00002840       ?math_max@?A0xc8d640f7@@YGHPAUlua_State@@@Z 10003840 f   luaglue.obj
 0001:00002850       ?math_random@?A0xc8d640f7@@YGHPAUlua_State@@@Z 10003850 f   luaglue.obj
 0001:00002860       ?math_randomseed@?A0xc8d640f7@@YGHPAUlua_State@@@Z 10003860 f   luaglue.obj
 0001:00002870       ?luaopen_math@@YGHPAUlua_State@@@Z 10003870 f   luaglue.obj
 0001:00002880       ?luaM_growaux_@@YGPAXPAUlua_State@@PAXPAHIHPBD@Z 10003880 f   luaglue.obj
 0001:00002890       ?luaM_toobig@@YGPAXPAUlua_State@@@Z 10003890 f   luaglue.obj
 0001:000028a0       ?luaM_realloc_@@YGPAXPAUlua_State@@PAXII@Z 100038a0 f   luaglue.obj
 0001:000028b0       ?setprogdir@?A0xc8d640f7@@YGXPAUlua_State@@@Z 100038b0 f   luaglue.obj
 0001:000028c0       ?pusherror@?A0xc8d640f7@@YGXPAUlua_State@@@Z 100038c0 f   luaglue.obj
 0001:000028d0       ?ll_unloadlib@?A0xc8d640f7@@YGXPAX@Z 100038d0 f   luaglue.obj
 0001:000028e0       ?ll_load@?A0xc8d640f7@@YGPAXPAUlua_State@@PBD@Z 100038e0 f   luaglue.obj
 0001:000028f0       ?ll_sym@?A0xc8d640f7@@YGP6GHPAUlua_State@@@Z0PAXPBD@Z 100038f0 f   luaglue.obj
 0001:00002900       ?ll_register@?A0xc8d640f7@@YGPAPAXPAUlua_State@@PBD@Z 10003900 f   luaglue.obj
 0001:00002910       ?gctm@?A0xc8d640f7@@YGHPAUlua_State@@@Z 10003910 f   luaglue.obj
 0001:00002920       ?ll_loadfunc@?A0xc8d640f7@@YGHPAUlua_State@@PBD1@Z 10003920 f   luaglue.obj
 0001:00002930       ?ll_loadlib@?A0xc8d640f7@@YGHPAUlua_State@@@Z 10003930 f   luaglue.obj
 0001:00002940       ?readable@?A0xc8d640f7@@YGHPBD@Z 10003940 f   luaglue.obj
 0001:00002950       ?pushnexttemplate@?A0xc8d640f7@@YGPBDPAUlua_State@@PBD@Z 10003950 f   luaglue.obj
 0001:00002960       ?findfile@?A0xc8d640f7@@YGPBDPAUlua_State@@PBD1@Z 10003960 f   luaglue.obj
 0001:00002970       ?loaderror@?A0xc8d640f7@@YGXPAUlua_State@@PBD@Z 10003970 f   luaglue.obj
 0001:00002980       ?loader_Lua@?A0xc8d640f7@@YGHPAUlua_State@@@Z 10003980 f   luaglue.obj
 0001:00002990       ?mkfuncname@?A0xc8d640f7@@YGPBDPAUlua_State@@PBD@Z 10003990 f   luaglue.obj
 0001:000029a0       ?loader_C@?A0xc8d640f7@@YGHPAUlua_State@@@Z 100039a0 f   luaglue.obj
 0001:000029b0       ?loader_Croot@?A0xc8d640f7@@YGHPAUlua_State@@@Z 100039b0 f   luaglue.obj
 0001:000029c0       ?loader_preload@?A0xc8d640f7@@YGHPAUlua_State@@@Z 100039c0 f   luaglue.obj
 0001:000029d0       ?ll_require@?A0xc8d640f7@@YGHPAUlua_State@@@Z 100039d0 f   luaglue.obj
 0001:000029e0       ?setfenv@?A0xc8d640f7@@YGXPAUlua_State@@@Z 100039e0 f   luaglue.obj
 0001:000029f0       ?dooptions@?A0xc8d640f7@@YGXPAUlua_State@@H@Z 100039f0 f   luaglue.obj
 0001:00002a00       ?modinit@?A0xc8d640f7@@YGXPAUlua_State@@PBD@Z 10003a00 f   luaglue.obj
 0001:00002a10       ?ll_module@?A0xc8d640f7@@YGHPAUlua_State@@@Z 10003a10 f   luaglue.obj
 0001:00002a20       ?ll_seeall@?A0xc8d640f7@@YGHPAUlua_State@@@Z 10003a20 f   luaglue.obj
 0001:00002a30       ?setpath@?A0xc8d640f7@@YGXPAUlua_State@@PBD11@Z 10003a30 f   luaglue.obj
 0001:00002a40       ?luaopen_package@@YGHPAUlua_State@@@Z 10003a40 f   luaglue.obj
 0001:00002a50       ?luaO_int2fb@@YGHI@Z       10003a50 f   luaglue.obj
 0001:00002a60       ?luaO_fb2int@@YGHH@Z       10003a60 f   luaglue.obj
 0001:00002a70       ?luaO_log2@@YGHI@Z         10003a70 f   luaglue.obj
 0001:00002a80       ?luaO_rawequalObj@@YGHPBUlua_TValue@@0@Z 10003a80 f   luaglue.obj
 0001:00002a90       ?luaO_str2d@@YGHPBDPAN@Z   10003a90 f   luaglue.obj
 0001:00002aa0       ?pushstr@?A0xc8d640f7@@YGXPAUlua_State@@PBD@Z 10003aa0 f   luaglue.obj
 0001:00002ab0       ?luaO_chunkid@@YGXPADPBDI@Z 10003ab0 f   luaglue.obj
 0001:00002ac0       _difftime@0xc8d640f7       10003ac0 f i luaglue.obj
 0001:00002ad0       _gmtime@0xc8d640f7         10003ad0 f i luaglue.obj
 0001:00002ae0       _localtime@0xc8d640f7      10003ae0 f i luaglue.obj
 0001:00002af0       _mktime@0xc8d640f7         10003af0 f i luaglue.obj
 0001:00002b00       _time@0xc8d640f7           10003b00 f i luaglue.obj
 0001:00002b10       ?os_pushresult@?A0xc8d640f7@@YGHPAUlua_State@@HPBD@Z 10003b10 f   luaglue.obj
 0001:00002b20       ?os_execute@?A0xc8d640f7@@YGHPAUlua_State@@@Z 10003b20 f   luaglue.obj
 0001:00002b30       ?os_remove@?A0xc8d640f7@@YGHPAUlua_State@@@Z 10003b30 f   luaglue.obj
 0001:00002b40       ?os_rename@?A0xc8d640f7@@YGHPAUlua_State@@@Z 10003b40 f   luaglue.obj
 0001:00002b50       ?os_tmpname@?A0xc8d640f7@@YGHPAUlua_State@@@Z 10003b50 f   luaglue.obj
 0001:00002b60       ?os_getenv@?A0xc8d640f7@@YGHPAUlua_State@@@Z 10003b60 f   luaglue.obj
 0001:00002b70       ?os_clock@?A0xc8d640f7@@YGHPAUlua_State@@@Z 10003b70 f   luaglue.obj
 0001:00002b80       ?setfield@?A0xc8d640f7@@YGXPAUlua_State@@PBDH@Z 10003b80 f   luaglue.obj
 0001:00002b90       ?setboolfield@?A0xc8d640f7@@YGXPAUlua_State@@PBDH@Z 10003b90 f   luaglue.obj
 0001:00002ba0       ?getboolfield@?A0xc8d640f7@@YGHPAUlua_State@@PBD@Z 10003ba0 f   luaglue.obj
 0001:00002bb0       ?getfield@?A0xc8d640f7@@YGHPAUlua_State@@PBDH@Z 10003bb0 f   luaglue.obj
 0001:00002bc0       ?os_date@?A0xc8d640f7@@YGHPAUlua_State@@@Z 10003bc0 f   luaglue.obj
 0001:00002bd0       ?os_time@?A0xc8d640f7@@YGHPAUlua_State@@@Z 10003bd0 f   luaglue.obj
 0001:00002be0       ?os_difftime@?A0xc8d640f7@@YGHPAUlua_State@@@Z 10003be0 f   luaglue.obj
 0001:00002bf0       ?os_setlocale@?A0xc8d640f7@@YGHPAUlua_State@@@Z 10003bf0 f   luaglue.obj
 0001:00002c00       ?os_exit@?A0xc8d640f7@@YGHPAUlua_State@@@Z 10003c00 f   luaglue.obj
 0001:00002c10       ?luaopen_os@@YGHPAUlua_State@@@Z 10003c10 f   luaglue.obj
 0001:00002c20       ?anchor_token@?A0xc8d640f7@@YGXPAULexState@@@Z 10003c20 f   luaglue.obj
 0001:00002c30       ?error_expected@?A0xc8d640f7@@YGXPAULexState@@H@Z 10003c30 f   luaglue.obj
 0001:00002c40       ?errorlimit@?A0xc8d640f7@@YGXPAUFuncState@@HPBD@Z 10003c40 f   luaglue.obj
 0001:00002c50       ?testnext@?A0xc8d640f7@@YGHPAULexState@@H@Z 10003c50 f   luaglue.obj
 0001:00002c60       ?check@?A0xc8d640f7@@YGXPAULexState@@H@Z 10003c60 f   luaglue.obj
 0001:00002c70       ?checknext@?A0xc8d640f7@@YGXPAULexState@@H@Z 10003c70 f   luaglue.obj
 0001:00002c80       ?check_match@?A0xc8d640f7@@YGXPAULexState@@HHH@Z 10003c80 f   luaglue.obj
 0001:00002c90       ?str_checkname@?A0xc8d640f7@@YGPATTString@@PAULexState@@@Z 10003c90 f   luaglue.obj
 0001:00002ca0       ?init_exp@?A0xc8d640f7@@YGXPAUexpdesc@@W4expkind@@H@Z 10003ca0 f   luaglue.obj
 0001:00002cb0       ?codestring@?A0xc8d640f7@@YGXPAULexState@@PAUexpdesc@@PATTString@@@Z 10003cb0 f   luaglue.obj
 0001:00002cc0       ?checkname@?A0xc8d640f7@@YGXPAULexState@@PAUexpdesc@@@Z 10003cc0 f   luaglue.obj
 0001:00002cd0       ?registerlocalvar@?A0xc8d640f7@@YGHPAULexState@@PATTString@@@Z 10003cd0 f   luaglue.obj
 0001:00002ce0       ?new_localvar@?A0xc8d640f7@@YGXPAULexState@@PATTString@@H@Z 10003ce0 f   luaglue.obj
 0001:00002cf0       ?adjustlocalvars@?A0xc8d640f7@@YGXPAULexState@@H@Z 10003cf0 f   luaglue.obj
 0001:00002d00       ?removevars@?A0xc8d640f7@@YGXPAULexState@@H@Z 10003d00 f   luaglue.obj
 0001:00002d10       ?indexupvalue@?A0xc8d640f7@@YGHPAUFuncState@@PATTString@@PAUexpdesc@@@Z 10003d10 f   luaglue.obj
 0001:00002d20       ?searchvar@?A0xc8d640f7@@YGHPAUFuncState@@PATTString@@@Z 10003d20 f   luaglue.obj
 0001:00002d30       ?markupval@?A0xc8d640f7@@YGXPAUFuncState@@H@Z 10003d30 f   luaglue.obj
 0001:00002d40       ?singlevaraux@?A0xc8d640f7@@YGHPAUFuncState@@PATTString@@PAUexpdesc@@H@Z 10003d40 f   luaglue.obj
 0001:00002d50       ?singlevar@?A0xc8d640f7@@YGXPAULexState@@PAUexpdesc@@@Z 10003d50 f   luaglue.obj
 0001:00002d60       ?adjust_assign@?A0xc8d640f7@@YGXPAULexState@@HHPAUexpdesc@@@Z 10003d60 f   luaglue.obj
 0001:00002d70       ?enterlevel@?A0xc8d640f7@@YGXPAULexState@@@Z 10003d70 f   luaglue.obj
 0001:00002d80       ?enterblock@?A0xc8d640f7@@YGXPAUFuncState@@PAUBlockCnt@@E@Z 10003d80 f   luaglue.obj
 0001:00002d90       ?leaveblock@?A0xc8d640f7@@YGXPAUFuncState@@@Z 10003d90 f   luaglue.obj
 0001:00002da0       ?pushclosure@?A0xc8d640f7@@YGXPAULexState@@PAUFuncState@@PAUexpdesc@@@Z 10003da0 f   luaglue.obj
 0001:00002db0       ?open_func@?A0xc8d640f7@@YGXPAULexState@@PAUFuncState@@@Z 10003db0 f   luaglue.obj
 0001:00002dc0       ?close_func@?A0xc8d640f7@@YGXPAULexState@@@Z 10003dc0 f   luaglue.obj
 0001:00002dd0       ?luaY_parser@@YGPAUProto@@PAUlua_State@@PAUZio@@PAUMbuffer@@PBD@Z 10003dd0 f   luaglue.obj
 0001:00002de0       ?field@?A0xc8d640f7@@YGXPAULexState@@PAUexpdesc@@@Z 10003de0 f   luaglue.obj
 0001:00002df0       ?yindex@?A0xc8d640f7@@YGXPAULexState@@PAUexpdesc@@@Z 10003df0 f   luaglue.obj
 0001:00002e00       ?recfield@?A0xc8d640f7@@YGXPAULexState@@PAUConsControl@@@Z 10003e00 f   luaglue.obj
 0001:00002e10       ?closelistfield@?A0xc8d640f7@@YGXPAUFuncState@@PAUConsControl@@@Z 10003e10 f   luaglue.obj
 0001:00002e20       ?lastlistfield@?A0xc8d640f7@@YGXPAUFuncState@@PAUConsControl@@@Z 10003e20 f   luaglue.obj
 0001:00002e30       ?listfield@?A0xc8d640f7@@YGXPAULexState@@PAUConsControl@@@Z 10003e30 f   luaglue.obj
 0001:00002e40       ?constructor@?A0xc8d640f7@@YGXPAULexState@@PAUexpdesc@@@Z 10003e40 f   luaglue.obj
 0001:00002e50       ?parlist@?A0xc8d640f7@@YGXPAULexState@@@Z 10003e50 f   luaglue.obj
 0001:00002e60       ?body@?A0xc8d640f7@@YGXPAULexState@@PAUexpdesc@@HH@Z 10003e60 f   luaglue.obj
 0001:00002e70       ?explist1@?A0xc8d640f7@@YGHPAULexState@@PAUexpdesc@@@Z 10003e70 f   luaglue.obj
 0001:00002e80       ?funcargs@?A0xc8d640f7@@YGXPAULexState@@PAUexpdesc@@@Z 10003e80 f   luaglue.obj
 0001:00002e90       ?prefixexp@?A0xc8d640f7@@YGXPAULexState@@PAUexpdesc@@@Z 10003e90 f   luaglue.obj
 0001:00002ea0       ?primaryexp@?A0xc8d640f7@@YGXPAULexState@@PAUexpdesc@@@Z 10003ea0 f   luaglue.obj
 0001:00002eb0       ?simpleexp@?A0xc8d640f7@@YGXPAULexState@@PAUexpdesc@@@Z 10003eb0 f   luaglue.obj
 0001:00002ec0       ?getunopr@?A0xc8d640f7@@YG?AW4UnOpr@@H@Z 10003ec0 f   luaglue.obj
 0001:00002ed0       ?getbinopr@?A0xc8d640f7@@YG?AW4BinOpr@@H@Z 10003ed0 f   luaglue.obj
 0001:00002ee0       ?subexpr@?A0xc8d640f7@@YG?AW4BinOpr@@PAULexState@@PAUexpdesc@@I@Z 10003ee0 f   luaglue.obj
 0001:00002ef0       ?expr@?A0xc8d640f7@@YGXPAULexState@@PAUexpdesc@@@Z 10003ef0 f   luaglue.obj
 0001:00002f00       ?block_follow@?A0xc8d640f7@@YGHH@Z 10003f00 f   luaglue.obj
 0001:00002f10       ?block@?A0xc8d640f7@@YGXPAULexState@@@Z 10003f10 f   luaglue.obj
 0001:00002f20       ?check_conflict@?A0xc8d640f7@@YGXPAULexState@@PAULHS_assign@@PAUexpdesc@@@Z 10003f20 f   luaglue.obj
 0001:00002f30       ?assignment@?A0xc8d640f7@@YGXPAULexState@@PAULHS_assign@@H@Z 10003f30 f   luaglue.obj
 0001:00002f40       ?cond@?A0xc8d640f7@@YGHPAULexState@@@Z 10003f40 f   luaglue.obj
 0001:00002f50       ?breakstat@?A0xc8d640f7@@YGXPAULexState@@@Z 10003f50 f   luaglue.obj
 0001:00002f60       ?whilestat@?A0xc8d640f7@@YGXPAULexState@@H@Z 10003f60 f   luaglue.obj
 0001:00002f70       ?repeatstat@?A0xc8d640f7@@YGXPAULexState@@H@Z 10003f70 f   luaglue.obj
 0001:00002f80       ?exp1@?A0xc8d640f7@@YGHPAULexState@@@Z 10003f80 f   luaglue.obj
 0001:00002f90       ?forbody@?A0xc8d640f7@@YGXPAULexState@@HHHH@Z 10003f90 f   luaglue.obj
 0001:00002fa0       ?fornum@?A0xc8d640f7@@YGXPAULexState@@PATTString@@H@Z 10003fa0 f   luaglue.obj
 0001:00002fb0       ?forlist@?A0xc8d640f7@@YGXPAULexState@@PATTString@@@Z 10003fb0 f   luaglue.obj
 0001:00002fc0       ?forstat@?A0xc8d640f7@@YGXPAULexState@@H@Z 10003fc0 f   luaglue.obj
 0001:00002fd0       ?test_then_block@?A0xc8d640f7@@YGHPAULexState@@@Z 10003fd0 f   luaglue.obj
 0001:00002fe0       ?ifstat@?A0xc8d640f7@@YGXPAULexState@@H@Z 10003fe0 f   luaglue.obj
 0001:00002ff0       ?localfunc@?A0xc8d640f7@@YGXPAULexState@@@Z 10003ff0 f   luaglue.obj
 0001:00003000       ?localstat@?A0xc8d640f7@@YGXPAULexState@@@Z 10004000 f   luaglue.obj
 0001:00003010       ?funcname@?A0xc8d640f7@@YGHPAULexState@@PAUexpdesc@@@Z 10004010 f   luaglue.obj
 0001:00003020       ?funcstat@?A0xc8d640f7@@YGXPAULexState@@H@Z 10004020 f   luaglue.obj
 0001:00003030       ?exprstat@?A0xc8d640f7@@YGXPAULexState@@@Z 10004030 f   luaglue.obj
 0001:00003040       ?retstat@?A0xc8d640f7@@YGXPAULexState@@@Z 10004040 f   luaglue.obj
 0001:00003050       ?statement@?A0xc8d640f7@@YGHPAULexState@@@Z 10004050 f   luaglue.obj
 0001:00003060       ?chunk@?A0xc8d640f7@@YGXPAULexState@@@Z 10004060 f   luaglue.obj
 0001:00003070       ?stack_init@?A0xc8d640f7@@YGXPAUlua_State@@0@Z 10004070 f   luaglue.obj
 0001:00003080       ?freestack@?A0xc8d640f7@@YGXPAUlua_State@@0@Z 10004080 f   luaglue.obj
 0001:00003090       ?f_luaopen@?A0xc8d640f7@@YGXPAUlua_State@@PAX@Z 10004090 f   luaglue.obj
 0001:000030a0       ?preinit_state@?A0xc8d640f7@@YGXPAUlua_State@@PAUglobal_State@@@Z 100040a0 f   luaglue.obj
 0001:000030b0       ?close_state@?A0xc8d640f7@@YGXPAUlua_State@@@Z 100040b0 f   luaglue.obj
 0001:000030c0       ?luaE_newthread@@YGPAUlua_State@@PAU1@@Z 100040c0 f   luaglue.obj
 0001:000030d0       ?luaE_freethread@@YGXPAUlua_State@@0@Z 100040d0 f   luaglue.obj
 0001:000030e0       ?lua_newstate@@YGPAUlua_State@@P6GPAXPAX0II@Z0@Z 100040e0 f   luaglue.obj
 0001:000030f0       ?callallgcTM@?A0xc8d640f7@@YGXPAUlua_State@@PAX@Z 100040f0 f   luaglue.obj
 0001:00003100       ?lua_close@@YGXPAUlua_State@@@Z 10004100 f   luaglue.obj
 0001:00003110       ?luaS_resize@@YGXPAUlua_State@@H@Z 10004110 f   luaglue.obj
 0001:00003120       ?newlstr@?A0xc8d640f7@@YGPATTString@@PAUlua_State@@PBDII@Z 10004120 f   luaglue.obj
 0001:00003130       ?luaS_newlstr@@YGPATTString@@PAUlua_State@@PBDI@Z 10004130 f   luaglue.obj
 0001:00003140       ?luaS_newudata@@YGPATUdata@@PAUlua_State@@IPAUTable@@@Z 10004140 f   luaglue.obj
 0001:00003150       ?str_len@?A0xc8d640f7@@YGHPAUlua_State@@@Z 10004150 f   luaglue.obj
 0001:00003160       ?posrelat@?A0xc8d640f7@@YGHHI@Z 10004160 f   luaglue.obj
 0001:00003170       ?str_sub@?A0xc8d640f7@@YGHPAUlua_State@@@Z 10004170 f   luaglue.obj
 0001:00003180       ?str_reverse@?A0xc8d640f7@@YGHPAUlua_State@@@Z 10004180 f   luaglue.obj
 0001:00003190       ?str_lower@?A0xc8d640f7@@YGHPAUlua_State@@@Z 10004190 f   luaglue.obj
 0001:000031a0       ?str_upper@?A0xc8d640f7@@YGHPAUlua_State@@@Z 100041a0 f   luaglue.obj
 0001:000031b0       ?str_rep@?A0xc8d640f7@@YGHPAUlua_State@@@Z 100041b0 f   luaglue.obj
 0001:000031c0       ?str_byte@?A0xc8d640f7@@YGHPAUlua_State@@@Z 100041c0 f   luaglue.obj
 0001:000031d0       ?str_char@?A0xc8d640f7@@YGHPAUlua_State@@@Z 100041d0 f   luaglue.obj
 0001:000031e0       ?writer@?A0xc8d640f7@@YGHPAUlua_State@@PBXIPAX@Z 100041e0 f   luaglue.obj
 0001:000031f0       ?str_dump@?A0xc8d640f7@@YGHPAUlua_State@@@Z 100041f0 f   luaglue.obj
 0001:00003200       ?check_capture@?A0xc8d640f7@@YGHPAUMatchState@@H@Z 10004200 f   luaglue.obj
 0001:00003210       ?capture_to_close@?A0xc8d640f7@@YGHPAUMatchState@@@Z 10004210 f   luaglue.obj
 0001:00003220       ?classend@?A0xc8d640f7@@YGPBDPAUMatchState@@PBD@Z 10004220 f   luaglue.obj
 0001:00003230       ?match_class@?A0xc8d640f7@@YGHHH@Z 10004230 f   luaglue.obj
 0001:00003240       ?matchbracketclass@?A0xc8d640f7@@YGHHPBD0@Z 10004240 f   luaglue.obj
 0001:00003250       ?singlematch@?A0xc8d640f7@@YGHHPBD0@Z 10004250 f   luaglue.obj
 0001:00003260       ?matchbalance@?A0xc8d640f7@@YGPBDPAUMatchState@@PBD1@Z 10004260 f   luaglue.obj
 0001:00003270       ?max_expand@?A0xc8d640f7@@YGPBDPAUMatchState@@PBD11@Z 10004270 f   luaglue.obj
 0001:00003280       ?min_expand@?A0xc8d640f7@@YGPBDPAUMatchState@@PBD11@Z 10004280 f   luaglue.obj
 0001:00003290       ?start_capture@?A0xc8d640f7@@YGPBDPAUMatchState@@PBD1H@Z 10004290 f   luaglue.obj
 0001:000032a0       ?end_capture@?A0xc8d640f7@@YGPBDPAUMatchState@@PBD1@Z 100042a0 f   luaglue.obj
 0001:000032b0       ?match_capture@?A0xc8d640f7@@YGPBDPAUMatchState@@PBDH@Z 100042b0 f   luaglue.obj
 0001:000032c0       ?match@?A0xc8d640f7@@YGPBDPAUMatchState@@PBD1@Z 100042c0 f   luaglue.obj
 0001:000032d0       ?lmemfind@?A0xc8d640f7@@YGPBDPBDI0I@Z 100042d0 f   luaglue.obj
 0001:000032e0       ?push_onecapture@?A0xc8d640f7@@YGXPAUMatchState@@HPBD1@Z 100042e0 f   luaglue.obj
 0001:000032f0       ?push_captures@?A0xc8d640f7@@YGHPAUMatchState@@PBD1@Z 100042f0 f   luaglue.obj
 0001:00003300       ?str_find_aux@?A0xc8d640f7@@YGHPAUlua_State@@H@Z 10004300 f   luaglue.obj
 0001:00003310       ?str_find@?A0xc8d640f7@@YGHPAUlua_State@@@Z 10004310 f   luaglue.obj
 0001:00003320       ?str_match@?A0xc8d640f7@@YGHPAUlua_State@@@Z 10004320 f   luaglue.obj
 0001:00003330       ?gmatch_aux@?A0xc8d640f7@@YGHPAUlua_State@@@Z 10004330 f   luaglue.obj
 0001:00003340       ?gmatch@?A0xc8d640f7@@YGHPAUlua_State@@@Z 10004340 f   luaglue.obj
 0001:00003350       ?gfind_nodef@?A0xc8d640f7@@YGHPAUlua_State@@@Z 10004350 f   luaglue.obj
 0001:00003360       ?add_s@?A0xc8d640f7@@YGXPAUMatchState@@PAUluaL_Buffer@@PBD2@Z 10004360 f   luaglue.obj
 0001:00003370       ?add_value@?A0xc8d640f7@@YGXPAUMatchState@@PAUluaL_Buffer@@PBD2@Z 10004370 f   luaglue.obj
 0001:00003380       ?str_gsub@?A0xc8d640f7@@YGHPAUlua_State@@@Z 10004380 f   luaglue.obj
 0001:00003390       ?addquoted@?A0xc8d640f7@@YGXPAUlua_State@@PAUluaL_Buffer@@H@Z 10004390 f   luaglue.obj
 0001:000033a0       ?scanformat@?A0xc8d640f7@@YGPBDPAUlua_State@@PBDPAD@Z 100043a0 f   luaglue.obj
 0001:000033b0       ?addintlen@?A0xc8d640f7@@YGXPAD@Z 100043b0 f   luaglue.obj
 0001:000033c0       ?str_format@?A0xc8d640f7@@YGHPAUlua_State@@@Z 100043c0 f   luaglue.obj
 0001:000033d0       ?createmetatable@?A0xc8d640f7@@YGXPAUlua_State@@@Z 100043d0 f   luaglue.obj
 0001:000033e0       ?luaopen_string@@YGHPAUlua_State@@@Z 100043e0 f   luaglue.obj
 0001:000033f0       ?hashnum@?A0xc8d640f7@@YGPAUNode@@PBUTable@@N@Z 100043f0 f   luaglue.obj
 0001:00003400       ?mainposition@?A0xc8d640f7@@YGPAUNode@@PBUTable@@PBUlua_TValue@@@Z 10004400 f   luaglue.obj
 0001:00003410       ?findindex@?A0xc8d640f7@@YGHPAUlua_State@@PAUTable@@PAUlua_TValue@@@Z 10004410 f   luaglue.obj
 0001:00003420       ?luaH_next@@YGHPAUlua_State@@PAUTable@@PAUlua_TValue@@@Z 10004420 f   luaglue.obj
 0001:00003430       ?computesizes@?A0xc8d640f7@@YGHQAHPAH@Z 10004430 f   luaglue.obj
 0001:00003440       ?countint@?A0xc8d640f7@@YGHPBUlua_TValue@@PAH@Z 10004440 f   luaglue.obj
 0001:00003450       ?numusearray@?A0xc8d640f7@@YGHPBUTable@@PAH@Z 10004450 f   luaglue.obj
 0001:00003460       ?numusehash@?A0xc8d640f7@@YGHPBUTable@@PAH1@Z 10004460 f   luaglue.obj
 0001:00003470       ?setarrayvector@?A0xc8d640f7@@YGXPAUlua_State@@PAUTable@@H@Z 10004470 f   luaglue.obj
 0001:00003480       ?setnodevector@?A0xc8d640f7@@YGXPAUlua_State@@PAUTable@@H@Z 10004480 f   luaglue.obj
 0001:00003490       ?resize@?A0xc8d640f7@@YGXPAUlua_State@@PAUTable@@HH@Z 10004490 f   luaglue.obj
 0001:000034a0       ?luaH_resizearray@@YGXPAUlua_State@@PAUTable@@H@Z 100044a0 f   luaglue.obj
 0001:000034b0       ?rehash@?A0xc8d640f7@@YGXPAUlua_State@@PAUTable@@PBUlua_TValue@@@Z 100044b0 f   luaglue.obj
 0001:000034c0       ?luaH_new@@YGPAUTable@@PAUlua_State@@HH@Z 100044c0 f   luaglue.obj
 0001:000034d0       ?luaH_free@@YGXPAUlua_State@@PAUTable@@@Z 100044d0 f   luaglue.obj
 0001:000034e0       ?getfreepos@?A0xc8d640f7@@YGPAUNode@@PAUTable@@@Z 100044e0 f   luaglue.obj
 0001:000034f0       ?newkey@?A0xc8d640f7@@YGPAUlua_TValue@@PAUlua_State@@PAUTable@@PBU2@@Z 100044f0 f   luaglue.obj
 0001:00003500       ?luaH_getnum@@YGPBUlua_TValue@@PAUTable@@H@Z 10004500 f   luaglue.obj
 0001:00003510       ?luaH_getstr@@YGPBUlua_TValue@@PAUTable@@PATTString@@@Z 10004510 f   luaglue.obj
 0001:00003520       ?luaH_set@@YGPAUlua_TValue@@PAUlua_State@@PAUTable@@PBU1@@Z 10004520 f   luaglue.obj
 0001:00003530       ?luaH_setnum@@YGPAUlua_TValue@@PAUlua_State@@PAUTable@@H@Z 10004530 f   luaglue.obj
 0001:00003540       ?luaH_setstr@@YGPAUlua_TValue@@PAUlua_State@@PAUTable@@PATTString@@@Z 10004540 f   luaglue.obj
 0001:00003550       ?unbound_search@?A0xc8d640f7@@YGHPAUTable@@I@Z 10004550 f   luaglue.obj
 0001:00003560       ?luaH_getn@@YGHPAUTable@@@Z 10004560 f   luaglue.obj
 0001:00003570       ?foreachi@?A0xc8d640f7@@YGHPAUlua_State@@@Z 10004570 f   luaglue.obj
 0001:00003580       ?foreach@?A0xc8d640f7@@YGHPAUlua_State@@@Z 10004580 f   luaglue.obj
 0001:00003590       ?maxn@?A0xc8d640f7@@YGHPAUlua_State@@@Z 10004590 f   luaglue.obj
 0001:000035a0       ?getn@?A0xc8d640f7@@YGHPAUlua_State@@@Z 100045a0 f   luaglue.obj
 0001:000035b0       ?setn@?A0xc8d640f7@@YGHPAUlua_State@@@Z 100045b0 f   luaglue.obj
 0001:000035c0       ?tinsert@?A0xc8d640f7@@YGHPAUlua_State@@@Z 100045c0 f   luaglue.obj
 0001:000035d0       ?tremove@?A0xc8d640f7@@YGHPAUlua_State@@@Z 100045d0 f   luaglue.obj
 0001:000035e0       ?tconcat@?A0xc8d640f7@@YGHPAUlua_State@@@Z 100045e0 f   luaglue.obj
 0001:000035f0       ?set2@?A0xc8d640f7@@YGXPAUlua_State@@HH@Z 100045f0 f   luaglue.obj
 0001:00003600       ?sort_comp@?A0xc8d640f7@@YGHPAUlua_State@@HH@Z 10004600 f   luaglue.obj
 0001:00003610       ?auxsort@?A0xc8d640f7@@YGXPAUlua_State@@HH@Z 10004610 f   luaglue.obj
 0001:00003620       ?sort@?A0xc8d640f7@@YGHPAUlua_State@@@Z 10004620 f   luaglue.obj
 0001:00003630       ?luaopen_table@@YGHPAUlua_State@@@Z 10004630 f   luaglue.obj
 0001:00003640       ?luaT_init@@YGXPAUlua_State@@@Z 10004640 f   luaglue.obj
 0001:00003650       ?luaT_gettm@@YGPBUlua_TValue@@PAUTable@@W4TMS@@PATTString@@@Z 10004650 f   luaglue.obj
 0001:00003660       ?luaT_gettmbyobj@@YGPBUlua_TValue@@PAUlua_State@@PBU1@W4TMS@@@Z 10004660 f   luaglue.obj
 0001:00003670       ?lstop@?A0xc8d640f7@@YGXPAUlua_State@@PAUlua_Debug@@@Z 10004670 f   luaglue.obj
 0001:00003680       ?laction@?A0xc8d640f7@@YGXH@Z 10004680 f   luaglue.obj
 0001:00003690       ?print_usage@?A0xc8d640f7@@YGXXZ 10004690 f   luaglue.obj
 0001:000036a0       ?l_message@?A0xc8d640f7@@YGXPBD0@Z 100046a0 f   luaglue.obj
 0001:000036b0       ?report@?A0xc8d640f7@@YGHPAUlua_State@@H@Z 100046b0 f   luaglue.obj
 0001:000036c0       ?traceback@?A0xc8d640f7@@YGHPAUlua_State@@@Z 100046c0 f   luaglue.obj
 0001:000036d0       ?docall@?A0xc8d640f7@@YGHPAUlua_State@@HH@Z 100046d0 f   luaglue.obj
 0001:000036e0       ?print_version@?A0xc8d640f7@@YGXXZ 100046e0 f   luaglue.obj
 0001:000036f0       ?getargs@?A0xc8d640f7@@YGHPAUlua_State@@PAPADH@Z 100046f0 f   luaglue.obj
 0001:00003700       ?dofile@?A0xc8d640f7@@YGHPAUlua_State@@PBD@Z 10004700 f   luaglue.obj
 0001:00003710       ?dostring@?A0xc8d640f7@@YGHPAUlua_State@@PBD1@Z 10004710 f   luaglue.obj
 0001:00003720       ?dolibrary@?A0xc8d640f7@@YGHPAUlua_State@@PBD@Z 10004720 f   luaglue.obj
 0001:00003730       ?get_prompt@?A0xc8d640f7@@YGPBDPAUlua_State@@H@Z 10004730 f   luaglue.obj
 0001:00003740       ?incomplete@?A0xc8d640f7@@YGHPAUlua_State@@H@Z 10004740 f   luaglue.obj
 0001:00003750       ?pushline@?A0xc8d640f7@@YGHPAUlua_State@@H@Z 10004750 f   luaglue.obj
 0001:00003760       ?loadline@?A0xc8d640f7@@YGHPAUlua_State@@@Z 10004760 f   luaglue.obj
 0001:00003770       ?dotty@?A0xc8d640f7@@YGXPAUlua_State@@@Z 10004770 f   luaglue.obj
 0001:00003780       ?handle_script@?A0xc8d640f7@@YGHPAUlua_State@@PAPADH@Z 10004780 f   luaglue.obj
 0001:00003790       ?collectargs@?A0xc8d640f7@@YGHPAPADPAH11@Z 10004790 f   luaglue.obj
 0001:000037a0       ?runargs@?A0xc8d640f7@@YGHPAUlua_State@@PAPADH@Z 100047a0 f   luaglue.obj
 0001:000037b0       ?handle_luainit@?A0xc8d640f7@@YGHPAUlua_State@@@Z 100047b0 f   luaglue.obj
 0001:000037c0       ?pmain@?A0xc8d640f7@@YGHPAUlua_State@@@Z 100047c0 f   luaglue.obj
 0001:000037d0       _main                      100047d0 f   luaglue.obj
 0001:000037e0       ?error@?A0xc8d640f7@@YGXPAULoadState@@PBD@Z 100047e0 f   luaglue.obj
 0001:000037f0       ?LoadBlock@?A0xc8d640f7@@YGXPAULoadState@@PAXI@Z 100047f0 f   luaglue.obj
 0001:00003800       ?LoadChar@?A0xc8d640f7@@YGHPAULoadState@@@Z 10004800 f   luaglue.obj
 0001:00003810       ?LoadInt@?A0xc8d640f7@@YGHPAULoadState@@@Z 10004810 f   luaglue.obj
 0001:00003820       ?LoadNumber@?A0xc8d640f7@@YGNPAULoadState@@@Z 10004820 f   luaglue.obj
 0001:00003830       ?LoadStringW@?A0xc8d640f7@@YGPATTString@@PAULoadState@@@Z 10004830 f   luaglue.obj
 0001:00003840       ?LoadCode@?A0xc8d640f7@@YGXPAULoadState@@PAUProto@@@Z 10004840 f   luaglue.obj
 0001:00003850       ?LoadConstants@?A0xc8d640f7@@YGXPAULoadState@@PAUProto@@@Z 10004850 f   luaglue.obj
 0001:00003860       ?LoadDebug@?A0xc8d640f7@@YGXPAULoadState@@PAUProto@@@Z 10004860 f   luaglue.obj
 0001:00003870       ?LoadFunction@?A0xc8d640f7@@YGPAUProto@@PAULoadState@@PATTString@@@Z 10004870 f   luaglue.obj
 0001:00003880       ?LoadHeader@?A0xc8d640f7@@YGXPAULoadState@@@Z 10004880 f   luaglue.obj
 0001:00003890       ?luaU_undump@@YGPAUProto@@PAUlua_State@@PAUZio@@PAUMbuffer@@PBD@Z 10004890 f   luaglue.obj
 0001:000038a0       ?luaU_header@@YGXPAD@Z     100048a0 f   luaglue.obj
 0001:000038b0       ?luaV_tonumber@@YGPBUlua_TValue@@PBU1@PAU1@@Z 100048b0 f   luaglue.obj
 0001:000038c0       ?luaV_tostring@@YGHPAUlua_State@@PAUlua_TValue@@@Z 100048c0 f   luaglue.obj
 0001:000038d0       ?traceexec@?A0xc8d640f7@@YGXPAUlua_State@@PBI@Z 100048d0 f   luaglue.obj
 0001:000038e0       ?callTMres@?A0xc8d640f7@@YGXPAUlua_State@@PAUlua_TValue@@PBU3@22@Z 100048e0 f   luaglue.obj
 0001:000038f0       ?callTM@?A0xc8d640f7@@YGXPAUlua_State@@PBUlua_TValue@@111@Z 100048f0 f   luaglue.obj
 0001:00003900       ?luaV_gettable@@YGXPAUlua_State@@PBUlua_TValue@@PAU2@2@Z 10004900 f   luaglue.obj
 0001:00003910       ?luaV_settable@@YGXPAUlua_State@@PBUlua_TValue@@PAU2@2@Z 10004910 f   luaglue.obj
 0001:00003920       ?call_binTM@?A0xc8d640f7@@YGHPAUlua_State@@PBUlua_TValue@@1PAU3@W4TMS@@@Z 10004920 f   luaglue.obj
 0001:00003930       ?get_compTM@?A0xc8d640f7@@YGPBUlua_TValue@@PAUlua_State@@PAUTable@@1W4TMS@@@Z 10004930 f   luaglue.obj
 0001:00003940       ?call_orderTM@?A0xc8d640f7@@YGHPAUlua_State@@PBUlua_TValue@@1W4TMS@@@Z 10004940 f   luaglue.obj
 0001:00003950       ?l_strcmp@?A0xc8d640f7@@YGHPBTTString@@0@Z 10004950 f   luaglue.obj
 0001:00003960       ?luaV_lessthan@@YGHPAUlua_State@@PBUlua_TValue@@1@Z 10004960 f   luaglue.obj
 0001:00003970       ?lessequal@?A0xc8d640f7@@YGHPAUlua_State@@PBUlua_TValue@@1@Z 10004970 f   luaglue.obj
 0001:00003980       ?luaV_equalval@@YGHPAUlua_State@@PBUlua_TValue@@1@Z 10004980 f   luaglue.obj
 0001:00003990       ?luaV_concat@@YGXPAUlua_State@@HH@Z 10004990 f   luaglue.obj
 0001:000039a0       ?Arith@?A0xc8d640f7@@YGXPAUlua_State@@PAUlua_TValue@@PBU3@2W4TMS@@@Z 100049a0 f   luaglue.obj
 0001:000039b0       ?luaV_execute@@YGXPAUlua_State@@H@Z 100049b0 f   luaglue.obj
 0001:000039c0       ?luaZ_fill@@YGHPAUZio@@@Z  100049c0 f   luaglue.obj
 0001:000039d0       ?luaZ_lookahead@@YGHPAUZio@@@Z 100049d0 f   luaglue.obj
 0001:000039e0       ?luaZ_init@@YGXPAUlua_State@@PAUZio@@P6GPBD0PAXPAI@Z2@Z 100049e0 f   luaglue.obj
 0001:000039f0       ?luaZ_read@@YGIPAUZio@@PAXI@Z 100049f0 f   luaglue.obj
 0001:00003a00       ?luaZ_openspace@@YGPADPAUlua_State@@PAUMbuffer@@I@Z 10004a00 f   luaglue.obj
 0001:00003a06       ??0type_info@@AAE@ABV0@@Z  10004a06 f   MSVCRT:ti_inst.obj
 0001:00003a11       ??_Etype_info@@UAEPAXI@Z   10004a11 f i MSVCRT:ti_inst.obj
 0001:00003a5d       ??4type_info@@AAEAAV0@ABV0@@Z 10004a5d f   MSVCRT:ti_inst.obj
 0001:00003a62       _NtCurrentTeb              10004a62 f i MSVCRT:crtdll.obj
 0001:00003ab8       __CRT_INIT@12              10004ab8 f   MSVCRT:crtdll.obj
 0001:00003df4       __DllMainCRTStartup@12     10004df4 f   MSVCRT:crtdll.obj
 0001:00003e18       ??3@YAXPAX@Z               10004e18 f   MSVCRT:MSVCR90.dll
 0001:00003e30       ?__ArrayUnwind@@YGXPAXIHP6EX0@Z@Z 10004e30 f   MSVCRT:ehvecdtr.obj
 0001:00003e8e       ??_M@YGXPAXIHP6EX0@Z@Z     10004e8e f   MSVCRT:ehvecdtr.obj
 0001:00003ef1       ___clean_type_info_names   10004ef1 f   MSVCRT:tncleanup.obj
 0001:00003efd       __onexit                   10004efd f   MSVCRT:atonexit.obj
 0001:00003fa2       _atexit                    10004fa2 f   MSVCRT:atonexit.obj
 0001:00003fb9       __RTC_Initialize           10004fb9 f   MSVCRT:_initsect_.obj
 0001:00003fdf       __RTC_Terminate            10004fdf f   MSVCRT:_initsect_.obj
 0001:00004006       ?_encode_pointer@@$$J0YAPAXPAX@Z 10005006 f   MSVCRT:MSVCR90.dll
 0001:00004006       __encode_pointer           10005006 f   MSVCRT:MSVCR90.dll
 0001:0000400c       __malloc_crt               1000500c f   MSVCRT:MSVCR90.dll
 0001:00004012       ?free@@$$J0YAXPAX@Z        10005012 f   MSVCRT:MSVCR90.dll
 0001:00004012       _free                      10005012 f   MSVCRT:MSVCR90.dll
 0001:00004018       __encoded_null             10005018 f   MSVCRT:MSVCR90.dll
 0001:00004018       ?_encoded_null@@$$J0YAPAXXZ 10005018 f   MSVCRT:MSVCR90.dll
 0001:0000401e       __decode_pointer           1000501e f   MSVCRT:MSVCR90.dll
 0001:0000401e       ?_decode_pointer@@$$J0YAPAXPAX@Z 1000501e f   MSVCRT:MSVCR90.dll
 0001:00004030       __ValidateImageBase        10005030 f   MSVCRT:pesect.obj
 0001:00004070       __FindPESection            10005070 f   MSVCRT:pesect.obj
 0001:000040c0       __IsNonwritableInCurrentImage 100050c0 f   MSVCRT:pesect.obj
 0001:0000417e       __initterm                 1000517e f   MSVCRT:MSVCR90.dll
 0001:00004184       __initterm_e               10005184 f   MSVCRT:MSVCR90.dll
 0001:0000418a       __amsg_exit                1000518a f   MSVCRT:MSVCR90.dll
 0001:0000418a       ?_amsg_exit@@$$J0YAXH@Z    1000518a f   MSVCRT:MSVCR90.dll
 0001:00004190       ___CppXcptFilter           10005190 f   MSVCRT:MSVCR90.dll
 0001:00004196       _DllMain@12                10005196 f   MSVCRT:dllmain.obj
 0001:000041bc       __SEH_prolog4              100051bc f   MSVCRT:sehprolg4.obj
 0001:00004201       __SEH_epilog4              10005201 f   MSVCRT:sehprolg4.obj
 0001:00004215       __except_handler4          10005215 f   MSVCRT:chandler4gs.obj
 0001:0000423a       ___security_init_cookie    1000523a f   MSVCRT:gs_support.obj
 0001:0000423a       ?__security_init_cookie@@$$J0YAXXZ 1000523a f   MSVCRT:gs_support.obj
 0001:000042d0       ?terminate@@YAXXZ          100052d0 f   MSVCRT:MSVCR90.dll
 0001:000042d6       ??1type_info@@UAE@XZ       100052d6 f   MSVCRT:MSVCR90.dll
 0001:000042d6       ?_type_info_dtor_internal_method@type_info@@QAEXXZ 100052d6 f   MSVCRT:MSVCR90.dll
 0001:000042dc       ___clean_type_info_names_internal 100052dc f   MSVCRT:MSVCR90.dll
 0001:000042e2       __unlock                   100052e2 f   MSVCRT:MSVCR90.dll
 0001:000042e8       ___dllonexit               100052e8 f   MSVCRT:MSVCR90.dll
 0001:000042ee       __lock                     100052ee f   MSVCRT:MSVCR90.dll
 0001:000042f4       @__security_check_cookie@4 100052f4 f   MSVCRT:secchk.obj
 0001:00004304       __except_handler4_common   10005304 f   MSVCRT:MSVCR90.dll
 0001:0000430a       ___report_gsfailure        1000530a f   MSVCRT:gs_report.obj
 0001:00004410       __crt_debugger_hook        10005410 f   MSVCRT:MSVCR90.dll
 0001:00004418       ?IsInDllMain@NativeDll@<CrtImplementationDetails>@@$$FSA_NXZ 10005418 f i MSVCMRT:mstartup.obj
 0001:00004434       __t2m@?IsInDllMain@NativeDll@<CrtImplementationDetails>@@SA_NXZ 10005434 f i MSVCMRT:mstartup.obj
 0001:0000443c       ?IsInProcessAttach@NativeDll@<CrtImplementationDetails>@@$$FSA_NXZ 1000543c f i MSVCMRT:mstartup.obj
 0001:00004454       __t2m@?IsInProcessAttach@NativeDll@<CrtImplementationDetails>@@SA_NXZ 10005454 f i MSVCMRT:mstartup.obj
 0001:0000445c       ?IsInProcessDetach@NativeDll@<CrtImplementationDetails>@@$$FSA_NXZ 1000545c f i MSVCMRT:mstartup.obj
 0001:00004474       __t2m@?IsInProcessDetach@NativeDll@<CrtImplementationDetails>@@SA_NXZ 10005474 f i MSVCMRT:mstartup.obj
 0001:0000447c       ?IsInVcclrit@NativeDll@<CrtImplementationDetails>@@$$FSA_NXZ 1000547c f i MSVCMRT:mstartup.obj
 0001:00004498       __t2m@?IsInVcclrit@NativeDll@<CrtImplementationDetails>@@SA_NXZ 10005498 f i MSVCMRT:mstartup.obj
 0001:000044a0       ?IsSafeForManagedCode@NativeDll@<CrtImplementationDetails>@@$$FSA_NXZ 100054a0 f i MSVCMRT:mstartup.obj
 0001:000044f5       __t2m@?IsSafeForManagedCode@NativeDll@<CrtImplementationDetails>@@SA_NXZ 100054f5 f i MSVCMRT:mstartup.obj
 0001:000044fb       ?_getFiberPtrId@@$$FYAPAXXZ 100054fb f   MSVCMRT:mstartup.obj
 0001:000044fb       ?_getFiberPtrId@@YAPAXXZ   100054fb f   MSVCMRT:mstartup.obj
 0001:00004508       ?DoNothing@DefaultDomain@<CrtImplementationDetails>@@$$FCGJPAX@Z 10005508 f i MSVCMRT:mstartup.obj
 0001:00004525       __t2m@?DoNothing@DefaultDomain@<CrtImplementationDetails>@@CGJPAX@Z 10005525 f i MSVCMRT:mstartup.obj
 0001:00004525       ?DoNothing@DefaultDomain@<CrtImplementationDetails>@@CGJPAX@Z 10005525 f i MSVCMRT:mstartup.obj
 0001:0000452c       ?HasPerProcess@DefaultDomain@<CrtImplementationDetails>@@$$FSA_NXZ 1000552c f i MSVCMRT:mstartup.obj
 0001:0000457e       __t2m@?HasPerProcess@DefaultDomain@<CrtImplementationDetails>@@SA_NXZ 1000557e f i MSVCMRT:mstartup.obj
 0001:00004584       ?HasNative@DefaultDomain@<CrtImplementationDetails>@@$$FSA_NXZ 10005584 f i MSVCMRT:mstartup.obj
 0001:00004602       __t2m@?HasNative@DefaultDomain@<CrtImplementationDetails>@@SA_NXZ 10005602 f i MSVCMRT:mstartup.obj
 0001:00004608       ?NeedsInitialization@DefaultDomain@<CrtImplementationDetails>@@$$FSA_NXZ 10005608 f i MSVCMRT:mstartup.obj
 0001:00004642       __t2m@?NeedsInitialization@DefaultDomain@<CrtImplementationDetails>@@SA_NXZ 10005642 f i MSVCMRT:mstartup.obj
 0001:00004648       ?NeedsUninitialization@DefaultDomain@<CrtImplementationDetails>@@$$FSA_NXZ 10005648 f i MSVCMRT:mstartup.obj
 0001:0000465a       __t2m@?NeedsUninitialization@DefaultDomain@<CrtImplementationDetails>@@SA_NXZ 1000565a f i MSVCMRT:mstartup.obj
 0001:00004660       ?Initialize@DefaultDomain@<CrtImplementationDetails>@@$$FSAXXZ 10005660 f i MSVCMRT:mstartup.obj
 0001:00004678       __t2m@?Initialize@DefaultDomain@<CrtImplementationDetails>@@SAXXZ 10005678 f i MSVCMRT:mstartup.obj
 0001:00004680       ?UninitializeAppDomain@LanguageSupport@<CrtImplementationDetails>@@$$FCAXXZ 10005680 f i MSVCMRT:mstartup.obj
 0001:00004692       __t2m@?UninitializeAppDomain@LanguageSupport@<CrtImplementationDetails>@@CAXXZ 10005692 f i MSVCMRT:mstartup.obj
 0001:00004698       ?_UninitializeDefaultDomain@LanguageSupport@<CrtImplementationDetails>@@$$FCGJPAX@Z 10005698 f i MSVCMRT:mstartup.obj
 0001:000046d1       __t2m@?_UninitializeDefaultDomain@LanguageSupport@<CrtImplementationDetails>@@CGJPAX@Z 100056d1 f i MSVCMRT:mstartup.obj
 0001:000046d1       ?_UninitializeDefaultDomain@LanguageSupport@<CrtImplementationDetails>@@CGJPAX@Z 100056d1 f i MSVCMRT:mstartup.obj
 0001:000046d8       ?UninitializeDefaultDomain@LanguageSupport@<CrtImplementationDetails>@@$$FCAXXZ 100056d8 f i MSVCMRT:mstartup.obj
 0001:0000470c       __t2m@?UninitializeDefaultDomain@LanguageSupport@<CrtImplementationDetails>@@CAXXZ 1000570c f i MSVCMRT:mstartup.obj
 0001:00004714       ?DomainUnload@LanguageSupport@<CrtImplementationDetails>@@$$FCMXP$AAVObject@System@@P$AAVEventArgs@4@@Z 10005714 f i MSVCMRT:mstartup.obj
 0001:0000474f       __t2m@?DomainUnload@LanguageSupport@<CrtImplementationDetails>@@CMXP$AAVObject@System@@P$AAVEventArgs@4@@Z 1000574f f i MSVCMRT:mstartup.obj
 0001:00004758       ?Cleanup@LanguageSupport@<CrtImplementationDetails>@@$$FAAMXP$AAVException@System@@@Z 10005758 f i MSVCMRT:mstartup.obj
 0001:000047cc       __t2m@?Cleanup@LanguageSupport@<CrtImplementationDetails>@@AAMXP$AAVException@System@@@Z 100057cc f i MSVCMRT:mstartup.obj
 0001:000047d4       ??0?$gcroot@P$AAVString@System@@@@$$FQAE@XZ 100057d4 f i MSVCMRT:mstartup.obj
 0001:000047f7       __t2m@??0?$gcroot@P$AAVString@System@@@@QAE@XZ 100057f7 f i MSVCMRT:mstartup.obj
 0001:00004800       ??1?$gcroot@P$AAVString@System@@@@$$FQAE@XZ 10005800 f i MSVCMRT:mstartup.obj
 0001:00004827       __t2m@??1?$gcroot@P$AAVString@System@@@@QAE@XZ 10005827 f i MSVCMRT:mstartup.obj
 0001:00004830       ??4?$gcroot@P$AAVString@System@@@@$$FQAMAAU0@P$AAVString@System@@@Z 10005830 f i MSVCMRT:mstartup.obj
 0001:00004856       __t2m@??4?$gcroot@P$AAVString@System@@@@QAMAAU0@P$AAVString@System@@@Z 10005856 f i MSVCMRT:mstartup.obj
 0001:0000485c       ??B?$gcroot@P$AAVString@System@@@@$$FQBMP$AAVString@System@@XZ 1000585c f i MSVCMRT:mstartup.obj
 0001:00004880       __t2m@??B?$gcroot@P$AAVString@System@@@@QBMP$AAVString@System@@XZ 10005880 f i MSVCMRT:mstartup.obj
 0001:00004888       ?InitializeVtables@LanguageSupport@<CrtImplementationDetails>@@$$FAAEXXZ 10005888 f i MSVCMRT:mstartup.obj
 0001:000048bc       __t2m@?InitializeVtables@LanguageSupport@<CrtImplementationDetails>@@AAEXXZ 100058bc f i MSVCMRT:mstartup.obj
 0001:000048c4       ?InitializeDefaultAppDomain@LanguageSupport@<CrtImplementationDetails>@@$$FAAEXXZ 100058c4 f i MSVCMRT:mstartup.obj
 0001:000048e2       __t2m@?InitializeDefaultAppDomain@LanguageSupport@<CrtImplementationDetails>@@AAEXXZ 100058e2 f i MSVCMRT:mstartup.obj
 0001:000048e8       ?InitializeNative@LanguageSupport@<CrtImplementationDetails>@@$$FAAEXXZ 100058e8 f i MSVCMRT:mstartup.obj
 0001:00004983       __t2m@?InitializeNative@LanguageSupport@<CrtImplementationDetails>@@AAEXXZ 10005983 f i MSVCMRT:mstartup.obj
 0001:0000498c       ?InitializePerProcess@LanguageSupport@<CrtImplementationDetails>@@$$FAAEXXZ 1000598c f i MSVCMRT:mstartup.obj
 0001:000049cc       __t2m@?InitializePerProcess@LanguageSupport@<CrtImplementationDetails>@@AAEXXZ 100059cc f i MSVCMRT:mstartup.obj
 0001:000049d4       ?InitializePerAppDomain@LanguageSupport@<CrtImplementationDetails>@@$$FAAEXXZ 100059d4 f i MSVCMRT:mstartup.obj
 0001:00004a0e       __t2m@?InitializePerAppDomain@LanguageSupport@<CrtImplementationDetails>@@AAEXXZ 10005a0e f i MSVCMRT:mstartup.obj
 0001:00004a14       ?InitializeUninitializer@LanguageSupport@<CrtImplementationDetails>@@$$FAAEXXZ 10005a14 f i MSVCMRT:mstartup.obj
 0001:00004a3e       __t2m@?InitializeUninitializer@LanguageSupport@<CrtImplementationDetails>@@AAEXXZ 10005a3e f i MSVCMRT:mstartup.obj
 0001:00004a44       ?_Initialize@LanguageSupport@<CrtImplementationDetails>@@$$FAAEXXZ 10005a44 f i MSVCMRT:mstartup.obj
 0001:00004b5c       __t2m@?_Initialize@LanguageSupport@<CrtImplementationDetails>@@AAEXXZ 10005b5c f i MSVCMRT:mstartup.obj
 0001:00004b64       ?Initialize@LanguageSupport@<CrtImplementationDetails>@@$$FQAEXXZ 10005b64 f i MSVCMRT:mstartup.obj
 0001:00004c20       __t2m@?Initialize@LanguageSupport@<CrtImplementationDetails>@@QAEXXZ 10005c20 f i MSVCMRT:mstartup.obj
 0001:00004c28       ??0LanguageSupport@<CrtImplementationDetails>@@$$FQAE@XZ 10005c28 f i MSVCMRT:mstartup.obj
 0001:00004c44       __t2m@??0LanguageSupport@<CrtImplementationDetails>@@QAE@XZ 10005c44 f i MSVCMRT:mstartup.obj
 0001:00004c4c       ??1LanguageSupport@<CrtImplementationDetails>@@$$FQAE@XZ 10005c4c f i MSVCMRT:mstartup.obj
 0001:00004c64       __t2m@??1LanguageSupport@<CrtImplementationDetails>@@QAE@XZ 10005c64 f i MSVCMRT:mstartup.obj
 0001:00004c6c       ?.cctor@@$$FYMXXZ          10005c6c f   MSVCMRT:mstartup.obj
 0001:00004cbc       ?.cctor@@YMXXZ             10005cbc f   MSVCMRT:mstartup.obj
 0001:00004cc4       ?_handle@AtExitLock@<CrtImplementationDetails>@@$$FCMP$AAVGCHandle@InteropServices@Runtime@System@@XZ 10005cc4 f i MSVCMRT:msilexit.obj
 0001:00004cf1       __t2m@?_handle@AtExitLock@<CrtImplementationDetails>@@CMP$AAVGCHandle@InteropServices@Runtime@System@@XZ 10005cf1 f i MSVCMRT:msilexit.obj
 0001:00004cf8       ?_lock_Set@AtExitLock@<CrtImplementationDetails>@@$$FCMXP$AAVObject@System@@@Z 10005cf8 f i MSVCMRT:msilexit.obj
 0001:00004d45       __t2m@?_lock_Set@AtExitLock@<CrtImplementationDetails>@@CMXP$AAVObject@System@@@Z 10005d45 f i MSVCMRT:msilexit.obj
 0001:00004d4c       ?_lock_Get@AtExitLock@<CrtImplementationDetails>@@$$FCMP$AAVObject@System@@XZ 10005d4c f i MSVCMRT:msilexit.obj
 0001:00004d6f       __t2m@?_lock_Get@AtExitLock@<CrtImplementationDetails>@@CMP$AAVObject@System@@XZ 10005d6f f i MSVCMRT:msilexit.obj
 0001:00004d78       ?_lock_Destruct@AtExitLock@<CrtImplementationDetails>@@$$FCAXXZ 10005d78 f i MSVCMRT:msilexit.obj
 0001:00004d9f       __t2m@?_lock_Destruct@AtExitLock@<CrtImplementationDetails>@@CAXXZ 10005d9f f i MSVCMRT:msilexit.obj
 0001:00004da8       ?IsInitialized@AtExitLock@<CrtImplementationDetails>@@$$FSA_NXZ 10005da8 f i MSVCMRT:msilexit.obj
 0001:00004dc2       __t2m@?IsInitialized@AtExitLock@<CrtImplementationDetails>@@SA_NXZ 10005dc2 f i MSVCMRT:msilexit.obj
 0001:00004dc8       ?RemoveRef@AtExitLock@<CrtImplementationDetails>@@$$FSAXXZ 10005dc8 f i MSVCMRT:msilexit.obj
 0001:00004ded       __t2m@?RemoveRef@AtExitLock@<CrtImplementationDetails>@@SAXXZ 10005ded f i MSVCMRT:msilexit.obj
 0001:00004df4       ?Enter@AtExitLock@<CrtImplementationDetails>@@$$FSAXXZ 10005df4 f i MSVCMRT:msilexit.obj
 0001:00004e0b       __t2m@?Enter@AtExitLock@<CrtImplementationDetails>@@SAXXZ 10005e0b f i MSVCMRT:msilexit.obj
 0001:00004e14       ?Exit@AtExitLock@<CrtImplementationDetails>@@$$FSAXXZ 10005e14 f i MSVCMRT:msilexit.obj
 0001:00004e2b       __t2m@?Exit@AtExitLock@<CrtImplementationDetails>@@SAXXZ 10005e2b f i MSVCMRT:msilexit.obj
 0001:00004e34       ?__global_lock@?A0x11773762@@$$FYA_NXZ 10005e34 f   MSVCMRT:msilexit.obj
 0001:00004e57       ?__global_lock@?A0x11773762@@YA_NXZ 10005e57 f   MSVCMRT:msilexit.obj
 0001:00004e60       ?__global_unlock@?A0x11773762@@$$FYA_NXZ 10005e60 f   MSVCMRT:msilexit.obj
 0001:00004e83       ?__global_unlock@?A0x11773762@@YA_NXZ 10005e83 f   MSVCMRT:msilexit.obj
 0001:00004e8c       ?__dealloc_global_lock@?A0x11773762@@$$FYAXXZ 10005e8c f   MSVCMRT:msilexit.obj
 0001:00004eb1       ?__dealloc_global_lock@?A0x11773762@@YAXXZ 10005eb1 f   MSVCMRT:msilexit.obj
 0001:00004eb8       ?_atexit_helper@@$$J0YMHP6MXXZPAIPAPAP6MXXZ2@Z 10005eb8 f   MSVCMRT:msilexit.obj
 0001:00005024       __atexit_helper            10006024 f   MSVCMRT:msilexit.obj
 0001:0000502c       ?_exit_callback@@$$J0YMXXZ 1000602c f   MSVCMRT:msilexit.obj
 0001:000050cd       __exit_callback            100060cd f   MSVCMRT:msilexit.obj
 0001:000050d4       ?_atexit_m@@$$J0YMHP6MXXZ@Z 100060d4 f   MSVCMRT:msilexit.obj
 0001:000050fb       __atexit_m                 100060fb f   MSVCMRT:msilexit.obj
 0001:00005104       ?_app_exit_callback@@$$J0YMXXZ 10006104 f   MSVCMRT:msilexit.obj
 0001:000051d8       __app_exit_callback        100061d8 f   MSVCMRT:msilexit.obj
 0001:000051e0       ?_atexit_m_appdomain@@$$J0YMHP6MXXZ@Z 100061e0 f   MSVCMRT:msilexit.obj
 0001:00005207       __atexit_m_appdomain       10006207 f   MSVCMRT:msilexit.obj
 0001:00005210       ?_lock_Construct@AtExitLock@<CrtImplementationDetails>@@$$FCMXP$AAVObject@System@@@Z 10006210 f i MSVCMRT:msilexit.obj
 0001:00005229       __t2m@?_lock_Construct@AtExitLock@<CrtImplementationDetails>@@CMXP$AAVObject@System@@@Z 10006229 f i MSVCMRT:msilexit.obj
 0001:00005230       ?AddRef@AtExitLock@<CrtImplementationDetails>@@$$FSAXXZ 10006230 f i MSVCMRT:msilexit.obj
 0001:00005266       __t2m@?AddRef@AtExitLock@<CrtImplementationDetails>@@SAXXZ 10006266 f i MSVCMRT:msilexit.obj
 0001:0000526c       ?__alloc_global_lock@?A0x11773762@@$$FYA_NXZ 1000626c f   MSVCMRT:msilexit.obj
 0001:00005283       ?__alloc_global_lock@?A0x11773762@@YA_NXZ 10006283 f   MSVCMRT:msilexit.obj
 0001:0000528c       ?_initatexit_m@@$$J0YMHXZ  1000628c f   MSVCMRT:msilexit.obj
 0001:000052d1       __initatexit_m             100062d1 f   MSVCMRT:msilexit.obj
 0001:000052d8       ?_onexit_m@@$$J0YMP6MHXZP6MHXZ@Z 100062d8 f   MSVCMRT:msilexit.obj
 0001:000052f2       __onexit_m                 100062f2 f   MSVCMRT:msilexit.obj
 0001:000052f8       ?_initatexit_app_domain@@$$J0YMHXZ 100062f8 f   MSVCMRT:msilexit.obj
 0001:0000533b       __initatexit_app_domain    1000633b f   MSVCMRT:msilexit.obj
 0001:00005344       ?_onexit_m_appdomain@@$$J0YMP6MHXZP6MHXZ@Z 10006344 f   MSVCMRT:msilexit.obj
 0001:0000535e       __onexit_m_appdomain       1000635e f   MSVCMRT:msilexit.obj
 0001:00005364       ?_initterm_e@@$$FYMHPAP6AHXZ0@Z 10006364 f   MSVCMRT:puremsilcode.obj
 0001:00005391       ?_initterm_e@@YMHPAP6AHXZ0@Z 10006391 f   MSVCMRT:puremsilcode.obj
 0001:00005398       ?_initterm@@$$FYMXPAP6AXXZ0@Z 10006398 f   MSVCMRT:puremsilcode.obj
 0001:000053be       ?_initterm@@YMXPAP6AXXZ0@Z 100063be f   MSVCMRT:puremsilcode.obj
 0001:000053c4       ?Handle@ThisModule@<CrtImplementationDetails>@@$$FCM?AVModuleHandle@System@@XZ 100063c4 f i MSVCMRT:puremsilcode.obj
 0001:000053e5       __t2m@?Handle@ThisModule@<CrtImplementationDetails>@@CM?AVModuleHandle@System@@XZ 100063e5 f i MSVCMRT:puremsilcode.obj
 0001:000053ec       ??$ResolveMethod@$$A6MPBXXZ@ThisModule@<CrtImplementationDetails>@@$$FSMP6MPBXXZP6MPBXXZ@Z 100063ec f i MSVCMRT:puremsilcode.obj
 0001:00005417       __t2m@??$ResolveMethod@$$A6MPBXXZ@ThisModule@<CrtImplementationDetails>@@SMP6MPBXXZP6MPBXXZ@Z 10006417 f i MSVCMRT:puremsilcode.obj
 0001:00005420       ?_initterm_m@@$$FYMXPBQ6MPBXXZ0@Z 10006420 f   MSVCMRT:puremsilcode.obj
 0001:0000544c       ?_initterm_m@@YMXPBQ6MPBXXZ0@Z 1000644c f   MSVCMRT:puremsilcode.obj
 0001:00005454       ?___CxxCallUnwindDtor@@$$J0YMXP6MXPAX@Z0@Z 10006454 f   MSVCMRT:managdeh.obj
 0001:00005498       ____CxxCallUnwindDtor      10006498 f   MSVCMRT:managdeh.obj
 0001:000054a0       ?___CxxCallUnwindDelDtor@@$$J0YMXP6MXPAX@Z0@Z 100064a0 f   MSVCMRT:managdeh.obj
 0001:000054e4       ____CxxCallUnwindDelDtor   100064e4 f   MSVCMRT:managdeh.obj
 0001:000054ec       ?___CxxCallUnwindVecDtor@@$$J0YMXP6MXPAXIHP6MX0@Z@Z0IH1@Z 100064ec f   MSVCMRT:managdeh.obj
 0001:00005534       ____CxxCallUnwindVecDtor   10006534 f   MSVCMRT:managdeh.obj
 0001:0000553a       _InterlockedExchange@8     1000653a f   kernel32:KERNEL32.dll
 0001:00005540       ?Sleep@@$$J14YGXK@Z        10006540 f   kernel32:KERNEL32.dll
 0001:00005540       _Sleep@4                   10006540 f   kernel32:KERNEL32.dll
 0001:00005546       _InterlockedCompareExchange@12 10006546 f   kernel32:KERNEL32.dll
 0001:0000554c       _DisableThreadLibraryCalls@4 1000654c f   kernel32:KERNEL32.dll
 0001:00005552       _QueryPerformanceCounter@4 10006552 f   kernel32:KERNEL32.dll
 0001:00005558       _GetTickCount@0            10006558 f   kernel32:KERNEL32.dll
 0001:0000555e       _GetCurrentThreadId@0      1000655e f   kernel32:KERNEL32.dll
 0001:00005564       _GetCurrentProcessId@0     10006564 f   kernel32:KERNEL32.dll
 0001:0000556a       _GetSystemTimeAsFileTime@4 1000656a f   kernel32:KERNEL32.dll
 0001:00005570       _TerminateProcess@8        10006570 f   kernel32:KERNEL32.dll
 0001:00005576       _GetCurrentProcess@0       10006576 f   kernel32:KERNEL32.dll
 0001:0000557c       _UnhandledExceptionFilter@4 1000657c f   kernel32:KERNEL32.dll
 0001:00005582       _SetUnhandledExceptionFilter@4 10006582 f   kernel32:KERNEL32.dll
 0001:00005588       _IsDebuggerPresent@0       10006588 f   kernel32:KERNEL32.dll
 0001:0000558e       _strlen                    1000658e f   MSVCRT:MSVCR90.dll
 0001:0000558e       ?strlen@@$$J0YAIPBD@Z      1000658e f   MSVCRT:MSVCR90.dll
 0001:00005594       _memcpy                    10006594 f   MSVCRT:MSVCR90.dll
 0001:00005594       ?memcpy@@$$J0YAPAXPAXPBXI@Z 10006594 f   MSVCRT:MSVCR90.dll
 0001:0000559a       _fscanf                    1000659a f   MSVCRT:MSVCR90.dll
 0001:0000559a       ?fscanf@@$$J0YAHPAU_iobuf@@PBDZZ 1000659a f   MSVCRT:MSVCR90.dll
 0001:000055a0       ?tmpfile@@$$J0YAPAU_iobuf@@XZ 100065a0 f   MSVCRT:MSVCR90.dll
 0001:000055a0       _tmpfile                   100065a0 f   MSVCRT:MSVCR90.dll
 0001:000055a6       _atan2                     100065a6 f   MSVCRT:MSVCR90.dll
 0001:000055a6       ?atan2@@$$J0YANNN@Z        100065a6 f   MSVCRT:MSVCR90.dll
 0001:000055ac       ?strtod@@$$J0YANPBDPAPAD@Z 100065ac f   MSVCRT:MSVCR90.dll
 0001:000055ac       _strtod                    100065ac f   MSVCRT:MSVCR90.dll
 0001:000055b2       ?rename@@$$J0YAHPBD0@Z     100065b2 f   MSVCRT:MSVCR90.dll
 0001:000055b2       _rename                    100065b2 f   MSVCRT:MSVCR90.dll
 0001:000055b8       ?sprintf@@$$J0YAHPADPBDZZ  100065b8 f   MSVCRT:MSVCR90.dll
 0001:000055b8       _sprintf                   100065b8 f   MSVCRT:MSVCR90.dll
 0001:000055be       __mktime64                 100065be f   MSVCRT:MSVCR90.dll
 0001:000055be       ?_mktime64@@$$J0YA_JPAUtm@@@Z 100065be f   MSVCRT:MSVCR90.dll
 0001:000055c4       ?feof@@$$J0YAHPAU_iobuf@@@Z 100065c4 f   MSVCRT:MSVCR90.dll
 0001:000055c4       _feof                      100065c4 f   MSVCRT:MSVCR90.dll
 0001:000055ca       _strncat                   100065ca f   MSVCRT:MSVCR90.dll
 0001:000055ca       ?strncat@@$$J0YAPADPADPBDI@Z 100065ca f   MSVCRT:MSVCR90.dll
 0001:000055d0       ?_gmtime64@@$$J0YAPAUtm@@PB_J@Z 100065d0 f   MSVCRT:MSVCR90.dll
 0001:000055d0       __gmtime64                 100065d0 f   MSVCRT:MSVCR90.dll
 0001:000055d6       _tmpnam                    100065d6 f   MSVCRT:MSVCR90.dll
 0001:000055d6       ?tmpnam@@$$J0YAPADPAD@Z    100065d6 f   MSVCRT:MSVCR90.dll
 0001:000055dc       ?sqrt@@$$J0YANN@Z          100065dc f   MSVCRT:MSVCR90.dll
 0001:000055dc       _sqrt                      100065dc f   MSVCRT:MSVCR90.dll
 0001:000055e2       _cos                       100065e2 f   MSVCRT:MSVCR90.dll
 0001:000055e2       ?cos@@$$J0YANN@Z           100065e2 f   MSVCRT:MSVCR90.dll
 0001:000055e8       _memcmp                    100065e8 f   MSVCRT:MSVCR90.dll
 0001:000055e8       ?memcmp@@$$J0YAHPBX0I@Z    100065e8 f   MSVCRT:MSVCR90.dll
 0001:000055ee       _ceil                      100065ee f   MSVCRT:MSVCR90.dll
 0001:000055ee       ?ceil@@$$J0YANN@Z          100065ee f   MSVCRT:MSVCR90.dll
 0001:000055f4       ?modf@@$$J0YANNPAN@Z       100065f4 f   MSVCRT:MSVCR90.dll
 0001:000055f4       _modf                      100065f4 f   MSVCRT:MSVCR90.dll
 0001:000055fa       ?ldexp@@$$J0YANNH@Z        100065fa f   MSVCRT:MSVCR90.dll
 0001:000055fa       _ldexp                     100065fa f   MSVCRT:MSVCR90.dll
 0001:00005600       ?isspace@@$$J0YAHH@Z       10006600 f   MSVCRT:MSVCR90.dll
 0001:00005600       _isspace                   10006600 f   MSVCRT:MSVCR90.dll
 0001:00005606       ?_pclose@@$$J0YAHPAU_iobuf@@@Z 10006606 f   MSVCRT:MSVCR90.dll
 0001:00005606       __pclose                   10006606 f   MSVCRT:MSVCR90.dll
 0001:0000560c       _pow                       1000660c f   MSVCRT:MSVCR90.dll
 0001:0000560c       ?pow@@$$J0YANNN@Z          1000660c f   MSVCRT:MSVCR90.dll
 0001:00005612       _strerror                  10006612 f   MSVCRT:MSVCR90.dll
 0001:00005612       ?strerror@@$$J0YAPADH@Z    10006612 f   MSVCRT:MSVCR90.dll
 0001:00005618       __isatty                   10006618 f   MSVCRT:MSVCR90.dll
 0001:00005618       ?_isatty@@$$J0YAHH@Z       10006618 f   MSVCRT:MSVCR90.dll
 0001:0000561e       _log                       1000661e f   MSVCRT:MSVCR90.dll
 0001:0000561e       ?log@@$$J0YANN@Z           1000661e f   MSVCRT:MSVCR90.dll
 0001:00005624       ?fputs@@$$J0YAHPBDPAU_iobuf@@@Z 10006624 f   MSVCRT:MSVCR90.dll
 0001:00005624       _fputs                     10006624 f   MSVCRT:MSVCR90.dll
 0001:0000562a       _ungetc                    1000662a f   MSVCRT:MSVCR90.dll
 0001:0000562a       ?ungetc@@$$J0YAHHPAU_iobuf@@@Z 1000662a f   MSVCRT:MSVCR90.dll
 0001:00005630       ?strstr@@$$J0YAPBDPBD0@Z   10006630 f   MSVCRT:MSVCR90.dll
 0001:00005630       _strstr                    10006630 f   MSVCRT:MSVCR90.dll
 0001:00005636       ___iob_func                10006636 f   MSVCRT:MSVCR90.dll
 0001:00005636       ?__iob_func@@$$J0YAPAU_iobuf@@XZ 10006636 f   MSVCRT:MSVCR90.dll
 0001:0000563c       ?strcpy@@$$J0YAPADPADPBD@Z 1000663c f   MSVCRT:MSVCR90.dll
 0001:0000563c       _strcpy                    1000663c f   MSVCRT:MSVCR90.dll
 0001:00005642       ___CxxRegisterExceptionObject 10006642 f   MSVCRT:MSVCR90.dll
 0001:00005642       ?__CxxRegisterExceptionObject@@$$J0YAHPAX0@Z 10006642 f   MSVCRT:MSVCR90.dll
 0001:00005648       _strchr                    10006648 f   MSVCRT:MSVCR90.dll
 0001:00005648       ?strchr@@$$J0YAPBDPBDH@Z   10006648 f   MSVCRT:MSVCR90.dll
 0001:0000564e       ?signal@@$$J0YAP6AXH@ZHP6AXH@Z@Z 1000664e f   MSVCRT:MSVCR90.dll
 0001:0000564e       _signal                    1000664e f   MSVCRT:MSVCR90.dll
 0001:00005654       _memchr                    10006654 f   MSVCRT:MSVCR90.dll
 0001:00005654       ?memchr@@$$J0YAPBXPBXHI@Z  10006654 f   MSVCRT:MSVCR90.dll
 0001:0000565a       _fflush                    1000665a f   MSVCRT:MSVCR90.dll
 0001:0000565a       ?fflush@@$$J0YAHPAU_iobuf@@@Z 1000665a f   MSVCRT:MSVCR90.dll
 0001:00005660       ?tanh@@$$J0YANN@Z          10006660 f   MSVCRT:MSVCR90.dll
 0001:00005660       _tanh                      10006660 f   MSVCRT:MSVCR90.dll
 0001:00005666       ?_popen@@$$J0YAPAU_iobuf@@PBD0@Z 10006666 f   MSVCRT:MSVCR90.dll
 0001:00005666       __popen                    10006666 f   MSVCRT:MSVCR90.dll
 0001:0000566c       ?system@@$$J0YAHPBD@Z      1000666c f   MSVCRT:MSVCR90.dll
 0001:0000566c       _system                    1000666c f   MSVCRT:MSVCR90.dll
 0001:00005672       __errno                    10006672 f   MSVCRT:MSVCR90.dll
 0001:00005672       ?_errno@@$$J0YAPAHXZ       10006672 f   MSVCRT:MSVCR90.dll
 0001:00005678       ?localeconv@@$$J0YAPAUlconv@@XZ 10006678 f   MSVCRT:MSVCR90.dll
 0001:00005678       _localeconv                10006678 f   MSVCRT:MSVCR90.dll
 0001:0000567e       ?remove@@$$J0YAHPBD@Z      1000667e f   MSVCRT:MSVCR90.dll
 0001:0000567e       _remove                    1000667e f   MSVCRT:MSVCR90.dll
 0001:00005684       _sinh                      10006684 f   MSVCRT:MSVCR90.dll
 0001:00005684       ?sinh@@$$J0YANN@Z          10006684 f   MSVCRT:MSVCR90.dll
 0001:0000568a       _isalnum                   1000668a f   MSVCRT:MSVCR90.dll
 0001:0000568a       ?isalnum@@$$J0YAHH@Z       1000668a f   MSVCRT:MSVCR90.dll
 0001:00005690       _tan                       10006690 f   MSVCRT:MSVCR90.dll
 0001:00005690       ?tan@@$$J0YANN@Z           10006690 f   MSVCRT:MSVCR90.dll
 0001:00005696       _ispunct                   10006696 f   MSVCRT:MSVCR90.dll
 0001:00005696       ?ispunct@@$$J0YAHH@Z       10006696 f   MSVCRT:MSVCR90.dll
 0001:0000569c       _strcoll                   1000669c f   MSVCRT:MSVCR90.dll
 0001:0000569c       ?strcoll@@$$J0YAHPBD0@Z    1000669c f   MSVCRT:MSVCR90.dll
 0001:000056a2       _tolower                   100066a2 f   MSVCRT:MSVCR90.dll
 0001:000056a2       ?tolower@@$$J0YAHH@Z       100066a2 f   MSVCRT:MSVCR90.dll
 0001:000056a8       ?strncpy@@$$J0YAPADPADPBDI@Z 100066a8 f   MSVCRT:MSVCR90.dll
 0001:000056a8       _strncpy                   100066a8 f   MSVCRT:MSVCR90.dll
 0001:000056ae       ?fgets@@$$J0YAPADPADHPAU_iobuf@@@Z 100066ae f   MSVCRT:MSVCR90.dll
 0001:000056ae       _fgets                     100066ae f   MSVCRT:MSVCR90.dll
 0001:000056b4       _fmod                      100066b4 f   MSVCRT:MSVCR90.dll
 0001:000056b4       ?fmod@@$$J0YANNN@Z         100066b4 f   MSVCRT:MSVCR90.dll
 0001:000056ba       ?fopen@@$$J0YAPAU_iobuf@@PBD0@Z 100066ba f   MSVCRT:MSVCR90.dll
 0001:000056ba       _fopen                     100066ba f   MSVCRT:MSVCR90.dll
 0001:000056c0       ?setvbuf@@$$J0YAHPAU_iobuf@@PADHI@Z 100066c0 f   MSVCRT:MSVCR90.dll
 0001:000056c0       _setvbuf                   100066c0 f   MSVCRT:MSVCR90.dll
 0001:000056c6       _isalpha                   100066c6 f   MSVCRT:MSVCR90.dll
 0001:000056c6       ?isalpha@@$$J0YAHH@Z       100066c6 f   MSVCRT:MSVCR90.dll
 0001:000056cc       _fread                     100066cc f   MSVCRT:MSVCR90.dll
 0001:000056cc       ?fread@@$$J0YAIPAXIIPAU_iobuf@@@Z 100066cc f   MSVCRT:MSVCR90.dll
 0001:000056d2       ?__CxxExceptionFilter@@$$J0YAHPAX0H0@Z 100066d2 f   MSVCRT:MSVCR90.dll
 0001:000056d2       ___CxxExceptionFilter      100066d2 f   MSVCRT:MSVCR90.dll
 0001:000056d8       ?fprintf@@$$J0YAHPAU_iobuf@@PBDZZ 100066d8 f   MSVCRT:MSVCR90.dll
 0001:000056d8       _fprintf                   100066d8 f   MSVCRT:MSVCR90.dll
 0001:000056de       ?clock@@$$J0YAJXZ          100066de f   MSVCRT:MSVCR90.dll
 0001:000056de       _clock                     100066de f   MSVCRT:MSVCR90.dll
 0001:000056e4       _rand                      100066e4 f   MSVCRT:MSVCR90.dll
 0001:000056e4       ?rand@@$$J0YAHXZ           100066e4 f   MSVCRT:MSVCR90.dll
 0001:000056ea       _strcmp                    100066ea f   MSVCRT:MSVCR90.dll
 0001:000056ea       ?strcmp@@$$J0YAHPBD0@Z     100066ea f   MSVCRT:MSVCR90.dll
 0001:000056f0       _srand                     100066f0 f   MSVCRT:MSVCR90.dll
 0001:000056f0       ?srand@@$$J0YAXI@Z         100066f0 f   MSVCRT:MSVCR90.dll
 0001:000056f6       ?isdigit@@$$J0YAHH@Z       100066f6 f   MSVCRT:MSVCR90.dll
 0001:000056f6       _isdigit                   100066f6 f   MSVCRT:MSVCR90.dll
 0001:000056fc       _cosh                      100066fc f   MSVCRT:MSVCR90.dll
 0001:000056fc       ?cosh@@$$J0YANN@Z          100066fc f   MSVCRT:MSVCR90.dll
 0001:00005702       ?acos@@$$J0YANN@Z          10006702 f   MSVCRT:MSVCR90.dll
 0001:00005702       _acos                      10006702 f   MSVCRT:MSVCR90.dll
 0001:00005708       ___CxxUnregisterExceptionObject 10006708 f   MSVCRT:MSVCR90.dll
 0001:00005708       ?__CxxUnregisterExceptionObject@@$$J0YAXPAXH@Z 10006708 f   MSVCRT:MSVCR90.dll
 0001:0000570e       ?strftime@@$$J0YAIPADIPBDPBUtm@@@Z 1000670e f   MSVCRT:MSVCR90.dll
 0001:0000570e       _strftime                  1000670e f   MSVCRT:MSVCR90.dll
 0001:00005714       _floor                     10006714 f   MSVCRT:MSVCR90.dll
 0001:00005714       ?floor@@$$J0YANN@Z         10006714 f   MSVCRT:MSVCR90.dll
 0001:0000571a       ?_fileno@@$$J0YAHPAU_iobuf@@@Z 1000671a f   MSVCRT:MSVCR90.dll
 0001:0000571a       __fileno                   1000671a f   MSVCRT:MSVCR90.dll
 0001:00005720       _frexp                     10006720 f   MSVCRT:MSVCR90.dll
 0001:00005720       ?frexp@@$$J0YANNPAH@Z      10006720 f   MSVCRT:MSVCR90.dll
 0001:00005726       _log10                     10006726 f   MSVCRT:MSVCR90.dll
 0001:00005726       ?log10@@$$J0YANN@Z         10006726 f   MSVCRT:MSVCR90.dll
 0001:0000572c       ?isupper@@$$J0YAHH@Z       1000672c f   MSVCRT:MSVCR90.dll
 0001:0000572c       _isupper                   1000672c f   MSVCRT:MSVCR90.dll
 0001:00005732       ?atan@@$$J0YANN@Z          10006732 f   MSVCRT:MSVCR90.dll
 0001:00005732       _atan                      10006732 f   MSVCRT:MSVCR90.dll
 0001:00005738       _ferror                    10006738 f   MSVCRT:MSVCR90.dll
 0001:00005738       ?ferror@@$$J0YAHPAU_iobuf@@@Z 10006738 f   MSVCRT:MSVCR90.dll
 0001:0000573e       _iscntrl                   1000673e f   MSVCRT:MSVCR90.dll
 0001:0000573e       ?iscntrl@@$$J0YAHH@Z       1000673e f   MSVCRT:MSVCR90.dll
 0001:00005744       ?fwrite@@$$J0YAIPBXIIPAU_iobuf@@@Z 10006744 f   MSVCRT:MSVCR90.dll
 0001:00005744       _fwrite                    10006744 f   MSVCRT:MSVCR90.dll
 0001:0000574a       _strrchr                   1000674a f   MSVCRT:MSVCR90.dll
 0001:0000574a       ?strrchr@@$$J0YAPBDPBDH@Z  1000674a f   MSVCRT:MSVCR90.dll
 0001:00005750       _toupper                   10006750 f   MSVCRT:MSVCR90.dll
 0001:00005750       ?toupper@@$$J0YAHH@Z       10006750 f   MSVCRT:MSVCR90.dll
 0001:00005756       _ftell                     10006756 f   MSVCRT:MSVCR90.dll
 0001:00005756       ?ftell@@$$J0YAJPAU_iobuf@@@Z 10006756 f   MSVCRT:MSVCR90.dll
 0001:0000575c       __CxxThrowException@8      1000675c f   MSVCRT:MSVCR90.dll
 0001:0000575c       ?_CxxThrowException@@$$J18YGXPAXPBU_s__ThrowInfo@@@Z 1000675c f   MSVCRT:MSVCR90.dll
 0001:00005762       _exp                       10006762 f   MSVCRT:MSVCR90.dll
 0001:00005762       ?exp@@$$J0YANN@Z           10006762 f   MSVCRT:MSVCR90.dll
 0001:00005768       ?strcspn@@$$J0YAIPBD0@Z    10006768 f   MSVCRT:MSVCR90.dll
 0001:00005768       _strcspn                   10006768 f   MSVCRT:MSVCR90.dll
 0001:0000576e       ?islower@@$$J0YAHH@Z       1000676e f   MSVCRT:MSVCR90.dll
 0001:0000576e       _islower                   1000676e f   MSVCRT:MSVCR90.dll
 0001:00005774       _realloc                   10006774 f   MSVCRT:MSVCR90.dll
 0001:00005774       ?realloc@@$$J0YAPAXPAXI@Z  10006774 f   MSVCRT:MSVCR90.dll
 0001:0000577a       ?setlocale@@$$J0YAPADHPBD@Z 1000677a f   MSVCRT:MSVCR90.dll
 0001:0000577a       _setlocale                 1000677a f   MSVCRT:MSVCR90.dll
 0001:00005780       _strtoul                   10006780 f   MSVCRT:MSVCR90.dll
 0001:00005780       ?strtoul@@$$J0YAKPBDPAPADH@Z 10006780 f   MSVCRT:MSVCR90.dll
 0001:00005786       ?_localtime64@@$$J0YAPAUtm@@PB_J@Z 10006786 f   MSVCRT:MSVCR90.dll
 0001:00005786       __localtime64              10006786 f   MSVCRT:MSVCR90.dll
 0001:0000578c       _fseek                     1000678c f   MSVCRT:MSVCR90.dll
 0001:0000578c       ?fseek@@$$J0YAHPAU_iobuf@@JH@Z 1000678c f   MSVCRT:MSVCR90.dll
 0001:00005792       ?getenv@@$$J0YAPADPBD@Z    10006792 f   MSVCRT:MSVCR90.dll
 0001:00005792       _getenv                    10006792 f   MSVCRT:MSVCR90.dll
 0001:00005798       _strpbrk                   10006798 f   MSVCRT:MSVCR90.dll
 0001:00005798       ?strpbrk@@$$J0YAPBDPBD0@Z  10006798 f   MSVCRT:MSVCR90.dll
 0001:0000579e       ?abs@@$$J0YAHH@Z           1000679e f   MSVCRT:MSVCR90.dll
 0001:0000579e       _abs                       1000679e f   MSVCRT:MSVCR90.dll
 0001:000057a4       ?fclose@@$$J0YAHPAU_iobuf@@@Z 100067a4 f   MSVCRT:MSVCR90.dll
 0001:000057a4       _fclose                    100067a4 f   MSVCRT:MSVCR90.dll
 0001:000057aa       ?isxdigit@@$$J0YAHH@Z      100067aa f   MSVCRT:MSVCR90.dll
 0001:000057aa       _isxdigit                  100067aa f   MSVCRT:MSVCR90.dll
 0001:000057b0       ?getc@@$$J0YAHPAU_iobuf@@@Z 100067b0 f   MSVCRT:MSVCR90.dll
 0001:000057b0       _getc                      100067b0 f   MSVCRT:MSVCR90.dll
 0001:000057b6       ?_difftime64@@$$J0YAN_J0@Z 100067b6 f   MSVCRT:MSVCR90.dll
 0001:000057b6       __difftime64               100067b6 f   MSVCRT:MSVCR90.dll
 0001:000057bc       ?fabs@@$$J0YANN@Z          100067bc f   MSVCRT:MSVCR90.dll
 0001:000057bc       _fabs                      100067bc f   MSVCRT:MSVCR90.dll
 0001:000057c2       ?__CxxDetectRethrow@@$$J0YAHPAX@Z 100067c2 f   MSVCRT:MSVCR90.dll
 0001:000057c2       ___CxxDetectRethrow        100067c2 f   MSVCRT:MSVCR90.dll
 0001:000057c8       ?_time64@@$$J0YA_JPA_J@Z   100067c8 f   MSVCRT:MSVCR90.dll
 0001:000057c8       __time64                   100067c8 f   MSVCRT:MSVCR90.dll
 0001:000057ce       ___CxxQueryExceptionSize   100067ce f   MSVCRT:MSVCR90.dll
 0001:000057ce       ?__CxxQueryExceptionSize@@$$J0YAHXZ 100067ce f   MSVCRT:MSVCR90.dll
 0001:000057d4       _clearerr                  100067d4 f   MSVCRT:MSVCR90.dll
 0001:000057d4       ?clearerr@@$$J0YAXPAU_iobuf@@@Z 100067d4 f   MSVCRT:MSVCR90.dll
 0001:000057da       ?strcat@@$$J0YAPADPADPBD@Z 100067da f   MSVCRT:MSVCR90.dll
 0001:000057da       _strcat                    100067da f   MSVCRT:MSVCR90.dll
 0001:000057e0       _exit                      100067e0 f   MSVCRT:MSVCR90.dll
 0001:000057e0       ?exit@@$$J0YAXH@Z          100067e0 f   MSVCRT:MSVCR90.dll
 0001:000057e6       _asin                      100067e6 f   MSVCRT:MSVCR90.dll
 0001:000057e6       ?asin@@$$J0YANN@Z          100067e6 f   MSVCRT:MSVCR90.dll
 0001:000057ec       _sin                       100067ec f   MSVCRT:MSVCR90.dll
 0001:000057ec       ?sin@@$$J0YANN@Z           100067ec f   MSVCRT:MSVCR90.dll
 0001:000057f2       ?_cexit@@$$J0YAXXZ         100067f2 f   MSVCRT:MSVCR90.dll
 0001:000057f2       __cexit                    100067f2 f   MSVCRT:MSVCR90.dll
 0001:000057f8       ?__FrameUnwindFilter@@$$J0YAHPAU_EXCEPTION_POINTERS@@@Z 100067f8 f   MSVCRT:MSVCR90.dll
 0001:000057f8       ___FrameUnwindFilter       100067f8 f   MSVCRT:MSVCR90.dll
 0001:000057fe       ?signal@@$$FYAP6MXH@ZHP6MXH@Z@Z 100067fe f   MSVCMRT:msvcm90.dll
 0001:000057fe       ?signal@@YAP6MXH@ZHP6MXH@Z@Z 100067fe f   MSVCMRT:msvcm90.dll
 0001:00005804       ?DoCallBackInDefaultDomain@<CrtImplementationDetails>@@YAXP6GJPAX@Z0@Z 10006804 f   MSVCMRT:msvcm90.dll
 0001:00005804       ?DoCallBackInDefaultDomain@<CrtImplementationDetails>@@$$FYAXP6GJPAX@Z0@Z 10006804 f   MSVCMRT:msvcm90.dll
 0001:0000580a       ?ThrowNestedModuleLoadException@<CrtImplementationDetails>@@$$FYAXP$AAVException@System@@0@Z 1000680a f   MSVCMRT:msvcm90.dll
 0001:0000580a       ?ThrowNestedModuleLoadException@<CrtImplementationDetails>@@YAXP$AAVException@System@@0@Z 1000680a f   MSVCMRT:msvcm90.dll
 0001:00005810       ?ThrowModuleLoadException@<CrtImplementationDetails>@@$$FYAXP$AAVString@System@@@Z 10006810 f   MSVCMRT:msvcm90.dll
 0001:00005810       ?ThrowModuleLoadException@<CrtImplementationDetails>@@YAXP$AAVString@System@@@Z 10006810 f   MSVCMRT:msvcm90.dll
 0001:00005816       ?RegisterModuleUninitializer@<CrtImplementationDetails>@@$$FYAXP$AAVEventHandler@System@@@Z 10006816 f   MSVCMRT:msvcm90.dll
 0001:00005816       ?RegisterModuleUninitializer@<CrtImplementationDetails>@@YAXP$AAVEventHandler@System@@@Z 10006816 f   MSVCMRT:msvcm90.dll
 0001:0000581c       ?DoDllLanguageSupportValidation@<CrtImplementationDetails>@@YAXXZ 1000681c f   MSVCMRT:msvcm90.dll
 0001:0000581c       ?DoDllLanguageSupportValidation@<CrtImplementationDetails>@@$$FYAXXZ 1000681c f   MSVCMRT:msvcm90.dll
 0001:00005822       ?ThrowModuleLoadException@<CrtImplementationDetails>@@$$FYAXP$AAVString@System@@P$AAVException@3@@Z 10006822 f   MSVCMRT:msvcm90.dll
 0001:00005822       ?ThrowModuleLoadException@<CrtImplementationDetails>@@YAXP$AAVString@System@@P$AAVException@3@@Z 10006822 f   MSVCMRT:msvcm90.dll
 0001:00005828       ?FreeLibrary@@$$J14YGHPAUHINSTANCE__@@@Z 10006828 f   kernel32:KERNEL32.dll
 0001:00005828       _FreeLibrary@4             10006828 f   kernel32:KERNEL32.dll
 0001:0000582e       ?FormatMessageA@@$$J228YGKKPBXKKPADKPAPAD@Z 1000682e f   kernel32:KERNEL32.dll
 0001:0000582e       _FormatMessageA@28         1000682e f   kernel32:KERNEL32.dll
 0001:00005834       ?GetLastError@@$$J10YGKXZ  10006834 f   kernel32:KERNEL32.dll
 0001:00005834       _GetLastError@0            10006834 f   kernel32:KERNEL32.dll
 0001:0000583a       _GetProcAddress@8          1000683a f   kernel32:KERNEL32.dll
 0001:0000583a       ?GetProcAddress@@$$J18YGP6GHXZPAUHINSTANCE__@@PBD@Z 1000683a f   kernel32:KERNEL32.dll
 0001:00005840       _LoadLibraryA@4            10006840 f   kernel32:KERNEL32.dll
 0001:00005840       ?LoadLibraryA@@$$J14YGPAUHINSTANCE__@@PBD@Z 10006840 f   kernel32:KERNEL32.dll
 0001:00005846       ?GetModuleFileNameA@@$$J212YGKPAUHINSTANCE__@@PADK@Z 10006846 f   kernel32:KERNEL32.dll
 0001:00005846       _GetModuleFileNameA@12     10006846 f   kernel32:KERNEL32.dll
 0001:0000584c       ?luaZ_init@@$$FYGXPAUlua_State@@PAUZio@@P6GPBD0PAXPAI@Z2@Z 1000684c f   luaglue.obj
 0001:00005874       ?luaZ_fill@@$$FYGHPAUZio@@@Z 10006874 f   luaglue.obj
 0001:000058c0       ?l_strcmp@?A0xc8d640f7@@$$FYGHPBTTString@@0@Z 100068c0 f   luaglue.obj
 0001:00005934       ?luaU_header@@$$FYGXPAD@Z  10006934 f   luaglue.obj
 0001:00005998       ?collectargs@?A0xc8d640f7@@$$FYGHPAPADPAH11@Z 10006998 f   luaglue.obj
 0001:00005c30       ?l_message@?A0xc8d640f7@@$$FYGXPBD0@Z 10006c30 f   luaglue.obj
 0001:00005c78       ?print_usage@?A0xc8d640f7@@$$FYGXXZ 10006c78 f   luaglue.obj
 0001:00005cac       ?luaH_set@@$$FYGPAUlua_TValue@@PAUlua_State@@PAUTable@@PBU1@@Z 10006cac f   luaglue.obj
 0001:00005d08       ?luaH_getstr@@$$FYGPBUlua_TValue@@PAUTable@@PATTString@@@Z 10006d08 f   luaglue.obj
 0001:00005d50       ?getfreepos@?A0xc8d640f7@@$$FYGPAUNode@@PAUTable@@@Z 10006d50 f   luaglue.obj
 0001:00005d90       ?numusearray@?A0xc8d640f7@@$$FYGHPBUTable@@PAH@Z 10006d90 f   luaglue.obj
 0001:00005e10       ?computesizes@?A0xc8d640f7@@$$FYGHQAHPAH@Z 10006e10 f   luaglue.obj
 0001:00005e68       ?hashnum@?A0xc8d640f7@@$$FYGPAUNode@@PBUTable@@N@Z 10006e68 f   luaglue.obj
 0001:00005ec4       ?addintlen@?A0xc8d640f7@@$$FYGXPAD@Z 10006ec4 f   luaglue.obj
 0001:00005f04       ?scanformat@?A0xc8d640f7@@$$FYGPBDPAUlua_State@@PBDPAD@Z 10006f04 f   luaglue.obj
 0001:00005fbc       ?gfind_nodef@?A0xc8d640f7@@$$FYGHPAUlua_State@@@Z 10006fbc f   luaglue.obj
 0001:00005fd8       ?lmemfind@?A0xc8d640f7@@$$FYGPBDPBDI0I@Z 10006fd8 f   luaglue.obj
 0001:00006034       ?start_capture@?A0xc8d640f7@@$$FYGPBDPAUMatchState@@PBD1H@Z 10007034 f   luaglue.obj
 0001:00006094       ?matchbalance@?A0xc8d640f7@@$$FYGPBDPAUMatchState@@PBD1@Z 10007094 f   luaglue.obj
 0001:000060fc       ?match_class@?A0xc8d640f7@@$$FYGHHH@Z 100070fc f   luaglue.obj
 0001:00006204       ?classend@?A0xc8d640f7@@$$FYGPBDPAUMatchState@@PBD@Z 10007204 f   luaglue.obj
 0001:00006280       ?capture_to_close@?A0xc8d640f7@@$$FYGHPAUMatchState@@@Z 10007280 f   luaglue.obj
 0001:000062c8       ?check_capture@?A0xc8d640f7@@$$FYGHPAUMatchState@@H@Z 100072c8 f   luaglue.obj
 0001:0000630c       ?posrelat@?A0xc8d640f7@@$$FYGHHI@Z 1000730c f   luaglue.obj
 0001:00006328       ?preinit_state@?A0xc8d640f7@@$$FYGXPAUlua_State@@PAUglobal_State@@@Z 10007328 f   luaglue.obj
 0001:000063a4       ?block_follow@?A0xc8d640f7@@$$FYGHH@Z 100073a4 f   luaglue.obj
 0001:0000643c       ?getbinopr@?A0xc8d640f7@@$$FYG?AW4BinOpr@@H@Z 1000743c f   luaglue.obj
 0001:0000687c       ?getunopr@?A0xc8d640f7@@$$FYG?AW4UnOpr@@H@Z 1000787c f   luaglue.obj
 0001:000068b0       ?enterblock@?A0xc8d640f7@@$$FYGXPAUFuncState@@PAUBlockCnt@@E@Z 100078b0 f   luaglue.obj
 0001:000068e4       ?markupval@?A0xc8d640f7@@$$FYGXPAUFuncState@@H@Z 100078e4 f   luaglue.obj
 0001:00006910       ?searchvar@?A0xc8d640f7@@$$FYGHPAUFuncState@@PATTString@@@Z 10007910 f   luaglue.obj
 0001:00006954       ?removevars@?A0xc8d640f7@@$$FYGXPAULexState@@H@Z 10007954 f   luaglue.obj
 0001:000069a0       ?adjustlocalvars@?A0xc8d640f7@@$$FYGXPAULexState@@H@Z 100079a0 f   luaglue.obj
 0001:000069f0       ?init_exp@?A0xc8d640f7@@$$FYGXPAUexpdesc@@W4expkind@@H@Z 100079f0 f   luaglue.obj
 0001:00006a14       ?time@?A0xc8d640f7@@$$J0YA_JPA_J@Z 10007a14 f   luaglue.obj
 0001:00006a2c       ?mktime@?A0xc8d640f7@@$$J0YA_JPAUtm@@@Z 10007a2c f   luaglue.obj
 0001:00006a44       ?localtime@?A0xc8d640f7@@$$J0YAPAUtm@@PB_J@Z 10007a44 f   luaglue.obj
 0001:00006a5c       ?gmtime@?A0xc8d640f7@@$$J0YAPAUtm@@PB_J@Z 10007a5c f   luaglue.obj
 0001:00006a74       ?difftime@?A0xc8d640f7@@$$J0YAN_J0@Z 10007a74 f   luaglue.obj
 0001:00006a8c       ?luaO_chunkid@@$$FYGXPADPBDI@Z 10007a8c f   luaglue.obj
 0001:00006b50       ?luaO_str2d@@$$FYGHPBDPAN@Z 10007b50 f   luaglue.obj
 0001:00006bac       ?luaO_rawequalObj@@$$FYGHPBUlua_TValue@@0@Z 10007bac f   luaglue.obj
 0001:00006c1c       ?luaO_log2@@$$FYGHI@Z      10007c1c f   luaglue.obj
 0001:00006c4c       ?luaO_fb2int@@$$FYGHH@Z    10007c4c f   luaglue.obj
 0001:00006c74       ?luaO_int2fb@@$$FYGHI@Z    10007c74 f   luaglue.obj
 0001:00006ca8       ?readable@?A0xc8d640f7@@$$FYGHPBD@Z 10007ca8 f   luaglue.obj
 0001:00006cd4       ?ll_unloadlib@?A0xc8d640f7@@$$FYGXPAX@Z 10007cd4 f   luaglue.obj
 0001:00006ce8       ?luaM_toobig@@$$FYGPAXPAUlua_State@@@Z 10007ce8 f   luaglue.obj
 0001:00006d04       ?buffreplace@?A0xc8d640f7@@$$FYGXPAULexState@@DD@Z 10007d04 f   luaglue.obj
 0001:00006d38       ?luaX_token2str@@$$FYGPBDPAULexState@@H@Z 10007d38 f   luaglue.obj
 0001:00006d8c       ?luaC_link@@$$FYGXPAUlua_State@@PATGCObject@@E@Z 10007d8c f   luaglue.obj
 0001:00006dbc       ?luaC_barrierback@@$$FYGXPAUlua_State@@PAUTable@@@Z 10007dbc f   luaglue.obj
 0001:00006df0       ?iscleared@?A0xc8d640f7@@$$FYGHPBUlua_TValue@@H@Z 10007df0 f   luaglue.obj
 0001:00006e48       ?reallymarkobject@?A0xc8d640f7@@$$FYGXPAUglobal_State@@PATGCObject@@@Z 10007e48 f   luaglue.obj
 0001:00006f54       ?removeentry@?A0xc8d640f7@@$$FYGXPAUNode@@@Z 10007f54 f   luaglue.obj
 0001:00006f70       ?luaF_getlocalname@@$$FYGPBDPBUProto@@HH@Z 10007f70 f   luaglue.obj
 0001:00006fcc       ?unlinkupval@?A0xc8d640f7@@$$FYGXPAUUpVal@@@Z 10007fcc f   luaglue.obj
 0001:00006ff8       ?DumpBlock@?A0xc8d640f7@@$$FYGXPBXIPAUDumpState@@@Z 10007ff8 f   luaglue.obj
 0001:00007024       ?lua_yield@@$$FYGHPAUlua_State@@H@Z 10008024 f   luaglue.obj
 0001:0000705c       ?luaD_reallocCI@@$$FYGXPAUlua_State@@H@Z 1000805c f   luaglue.obj
 0001:000070d4       ?correctstack@?A0xc8d640f7@@$$FYGXPAUlua_State@@PAUlua_TValue@@@Z 100080d4 f   luaglue.obj
 0001:00007184       ?luaD_rawrunprotected@@$$FYGHPAUlua_State@@P6GX0PAX@Z1@Z 10008184 f   luaglue.obj
 0001:00007278       ?restore_stack_limit@?A0xc8d640f7@@$$FYGXPAUlua_State@@@Z 10008278 f   luaglue.obj
 0001:000072b8       ?luaG_ordererror@@$$FYGHPAUlua_State@@PBUlua_TValue@@1@Z 100082b8 f   luaglue.obj
 0001:0000730c       ?isinstack@?A0xc8d640f7@@$$FYGHPAUCallInfo@@PBUlua_TValue@@@Z 1000830c f   luaglue.obj
 0001:00007338       ?kname@?A0xc8d640f7@@$$FYGPBDPAUProto@@H@Z 10008338 f   luaglue.obj
 0001:00007380       ?checkArgMode@?A0xc8d640f7@@$$FYGHPBUProto@@HW4OpArgMask@@@Z 10008380 f   luaglue.obj
 0001:000073f0       ?luaG_checkopenop@@$$FYGHI@Z 100083f0 f   luaglue.obj
 0001:0000742c       ?precheck@?A0xc8d640f7@@$$FYGHPBUProto@@@Z 1000842c f   luaglue.obj
 0001:00007490       ?info_tailcall@?A0xc8d640f7@@$$FYGXPAUlua_Debug@@@Z 10008490 f   luaglue.obj
 0001:000074ec       ?funcinfo@?A0xc8d640f7@@$$FYGXPAUlua_Debug@@PATClosure@@@Z 100084ec f   luaglue.obj
 0001:0000757c       ?getluaproto@?A0xc8d640f7@@$$FYGPAUProto@@PAUCallInfo@@@Z 1000857c f   luaglue.obj
 0001:000075b0       ?lua_getstack@@$$FYGHPAUlua_State@@HPAUlua_Debug@@@Z 100085b0 f   luaglue.obj
 0001:00007624       ?lua_gethookcount@@$$FYGHPAUlua_State@@@Z 10008624 f   luaglue.obj
 0001:00007638       ?lua_gethookmask@@$$FYGHPAUlua_State@@@Z 10008638 f   luaglue.obj
 0001:0000764c       ?lua_gethook@@$$FYGP6GXPAUlua_State@@PAUlua_Debug@@@Z0@Z 1000864c f   luaglue.obj
 0001:00007660       ?lua_sethook@@$$FYGHPAUlua_State@@P6GX0PAUlua_Debug@@@ZHH@Z 10008660 f   luaglue.obj
 0001:00007698       ?currentpc@?A0xc8d640f7@@$$FYGHPAUlua_State@@PAUCallInfo@@@Z 10008698 f   luaglue.obj
 0001:000076e8       ?unmakemask@?A0xc8d640f7@@$$FYGPADHPAD@Z 100086e8 f   luaglue.obj
 0001:0000772c       ?makemask@?A0xc8d640f7@@$$FYGHPBDH@Z 1000872c f   luaglue.obj
 0001:00007770       ?luaK_fixline@@$$FYGXPAUFuncState@@H@Z 10008770 f   luaglue.obj
 0001:00007790       ?luaK_setoneret@@$$FYGXPAUFuncState@@PAUexpdesc@@@Z 10008790 f   luaglue.obj
 0001:000077f8       ?freereg@?A0xc8d640f7@@$$FYGXPAUFuncState@@H@Z 100087f8 f   luaglue.obj
 0001:00007824       ?getjumpcontrol@?A0xc8d640f7@@$$FYGPAIPAUFuncState@@H@Z 10008824 f   luaglue.obj
 0001:00007860       ?getjump@?A0xc8d640f7@@$$FYGHPAUFuncState@@H@Z 10008860 f   luaglue.obj
 0001:00007898       ?luaK_getlabel@@$$FYGHPAUFuncState@@@Z 10008898 f   luaglue.obj
 0001:000078b8       ?isnumeral@?A0xc8d640f7@@$$FYGHPAUexpdesc@@@Z 100088b8 f   luaglue.obj
 0001:000078e4       ?l_alloc@?A0xc8d640f7@@$$FYGPAXPAX0II@Z 100088e4 f   luaglue.obj
 0001:00007908       ?getS@?A0xc8d640f7@@$$FYGPBDPAUlua_State@@PAXPAI@Z 10008908 f   luaglue.obj
 0001:00007930       ?getF@?A0xc8d640f7@@$$FYGPBDPAUlua_State@@PAXPAI@Z 10008930 f   luaglue.obj
 0001:00007984       ?luaL_buffinit@@$$FYGXPAUlua_State@@PAUluaL_Buffer@@@Z 10008984 f   luaglue.obj
 0001:000079a4       ?libsize@?A0xc8d640f7@@$$FYGHPBUluaL_Reg@@@Z 100089a4 f   luaglue.obj
 0001:000079c8       ?aux_upvalue@?A0xc8d640f7@@$$FYGPBDPAUlua_TValue@@HPAPAU2@@Z 100089c8 f   luaglue.obj
 0001:00007a44       ?lua_setallocf@@$$FYGXPAUlua_State@@P6GPAXPAX1II@Z1@Z 10008a44 f   luaglue.obj
 0001:00007a68       ?lua_getallocf@@$$FYGP6GPAXPAX0II@ZPAUlua_State@@PAPAX@Z 10008a68 f   luaglue.obj
 0001:00007a90       ?lua_status@@$$FYGHPAUlua_State@@@Z 10008a90 f   luaglue.obj
 0001:00007aa4       ?lua_pushthread@@$$FYGHPAUlua_State@@@Z 10008aa4 f   luaglue.obj
 0001:00007b04       ?lua_pushlightuserdata@@$$FYGXPAUlua_State@@PAX@Z 10008b04 f   luaglue.obj
 0001:00007b54       ?lua_pushboolean@@$$FYGXPAUlua_State@@H@Z 10008b54 f   luaglue.obj
 0001:00007bac       ?lua_pushinteger@@$$FYGXPAUlua_State@@H@Z 10008bac f   luaglue.obj
 0001:00007bfc       ?lua_pushnumber@@$$FYGXPAUlua_State@@N@Z 10008bfc f   luaglue.obj
 0001:00007c4c       ?lua_pushnil@@$$FYGXPAUlua_State@@@Z 10008c4c f   luaglue.obj
 0001:00007c94       ?lua_typename@@$$FYGPBDPAUlua_State@@H@Z 10008c94 f   luaglue.obj
 0001:00007cb8       ?lua_settop@@$$FYGXPAUlua_State@@H@Z 10008cb8 f   luaglue.obj
 0001:00007d64       ?lua_gettop@@$$FYGHPAUlua_State@@@Z 10008d64 f   luaglue.obj
 0001:00007d80       ?lua_atpanic@@$$FYGP6GHPAUlua_State@@@Z0P6GH0@Z@Z 10008d80 f   luaglue.obj
 0001:00007da4       ?lua_xmove@@$$FYGXPAUlua_State@@0H@Z 10008da4 f   luaglue.obj
 0001:00007e70       ?luaA_pushobject@@$$FYGXPAUlua_State@@PBUlua_TValue@@@Z 10008e70 f   luaglue.obj
 0001:00007ec4       ?getcurrenv@?A0xc8d640f7@@$$FYGPAUTable@@PAUlua_State@@@Z 10008ec4 f   luaglue.obj
 0001:00007ef8       ?index2adr@?A0xc8d640f7@@$$FYGPAUlua_TValue@@PAUlua_State@@H@Z 10008ef8 f   luaglue.obj
 0001:00008020       ?luaZ_lookahead@@$$FYGHPAUZio@@@Z 10009020 f   luaglue.obj
 0001:00008058       ?luaV_tonumber@@$$FYGPBUlua_TValue@@PBU1@PAU1@@Z 10009058 f   luaglue.obj
 0001:00008098       ?print_version@?A0xc8d640f7@@$$FYGXXZ 10009098 f   luaglue.obj
 0001:000080b0       ?lstop@?A0xc8d640f7@@$$FYGXPAUlua_State@@PAUlua_Debug@@@Z 100090b0 f   luaglue.obj
 0001:000080d4       ?luaT_gettmbyobj@@$$FYGPBUlua_TValue@@PAUlua_State@@PBU1@W4TMS@@@Z 100090d4 f   luaglue.obj
 0001:00008138       ?luaT_gettm@@$$FYGPBUlua_TValue@@PAUTable@@W4TMS@@PATTString@@@Z 10009138 f   luaglue.obj
 0001:00008168       ?luaH_getnum@@$$FYGPBUlua_TValue@@PAUTable@@H@Z 10009168 f   luaglue.obj
 0001:000081c0       ?countint@?A0xc8d640f7@@$$FYGHPBUlua_TValue@@PAH@Z 100091c0 f   luaglue.obj
 0001:000081fc       ?mainposition@?A0xc8d640f7@@$$FYGPAUNode@@PBUTable@@PBUlua_TValue@@@Z 100091fc f   luaglue.obj
 0001:00008298       ?match_capture@?A0xc8d640f7@@$$FYGPBDPAUMatchState@@PBDH@Z 10009298 f   luaglue.obj
 0001:000082e0       ?end_capture@?A0xc8d640f7@@$$FYGPBDPAUMatchState@@PBD1@Z 100092e0 f   luaglue.obj
 0001:00008328       ?matchbracketclass@?A0xc8d640f7@@$$FYGHHPBD0@Z 10009328 f   luaglue.obj
 0001:000083a8       ?luaS_resize@@$$FYGXPAUlua_State@@H@Z 100093a8 f   luaglue.obj
 0001:0000846c       ?os_clock@?A0xc8d640f7@@$$FYGHPAUlua_State@@@Z 1000946c f   luaglue.obj
 0001:00008494       ?os_pushresult@?A0xc8d640f7@@$$FYGHPAUlua_State@@HPBD@Z 10009494 f   luaglue.obj
 0001:000084dc       ?read_number@?A0xc8d640f7@@$$FYGHPAUlua_State@@PAU_iobuf@@@Z 100094dc f   luaglue.obj
 0001:00008508       ?pushresult@?A0xc8d640f7@@$$FYGHPAUlua_State@@HPBD@Z 10009508 f   luaglue.obj
 0001:00008564       ?luaC_barrierf@@$$FYGXPAUlua_State@@PATGCObject@@1@Z 10009564 f   luaglue.obj
 0001:000085a0       ?remarkupvals@?A0xc8d640f7@@$$FYGXPAUglobal_State@@@Z 100095a0 f   luaglue.obj
 0001:000085f8       ?markmt@?A0xc8d640f7@@$$FYGXPAUglobal_State@@@Z 100095f8 f   luaglue.obj
 0001:00008648       ?cleartable@?A0xc8d640f7@@$$FYGXPATGCObject@@@Z 10009648 f   luaglue.obj
 0001:000086dc       ?traverseclosure@?A0xc8d640f7@@$$FYGXPAUglobal_State@@PATClosure@@@Z 100096dc f   luaglue.obj
 0001:00008790       ?traverseproto@?A0xc8d640f7@@$$FYGXPAUglobal_State@@PAUProto@@@Z 10009790 f   luaglue.obj
 0001:000088bc       ?traversetable@?A0xc8d640f7@@$$FYGHPAUglobal_State@@PAUTable@@@Z 100098bc f   luaglue.obj
 0001:00008a4c       ?luaC_separateudata@@$$FYGIPAUlua_State@@H@Z 10009a4c f   luaglue.obj
 0001:00008b18       ?marktmu@?A0xc8d640f7@@$$FYGXPAUglobal_State@@@Z 10009b18 f   luaglue.obj
 0001:00008b58       ?luaF_freeupval@@$$FYGXPAUlua_State@@PAUUpVal@@@Z 10009b58 f   luaglue.obj
 0001:00008b80       ?DumpHeader@?A0xc8d640f7@@$$FYGXPAUDumpState@@@Z 10009b80 f   luaglue.obj
 0001:00008ba0       ?DumpString@?A0xc8d640f7@@$$FYGXPBTTString@@PAUDumpState@@@Z 10009ba0 f   luaglue.obj
 0001:00008be0       ?DumpNumber@?A0xc8d640f7@@$$FYGXNPAUDumpState@@@Z 10009be0 f   luaglue.obj
 0001:00008bf8       ?DumpInt@?A0xc8d640f7@@$$FYGXHPAUDumpState@@@Z 10009bf8 f   luaglue.obj
 0001:00008c10       ?DumpChar@?A0xc8d640f7@@$$FYGXHPAUDumpState@@@Z 10009c10 f   luaglue.obj
 0001:00008c28       ?symbexec@?A0xc8d640f7@@$$FYGIPBUProto@@HH@Z 10009c28 f   luaglue.obj
 0001:00009104       ?findlocal@?A0xc8d640f7@@$$FYGPBDPAUlua_State@@PAUCallInfo@@H@Z 1000a104 f   luaglue.obj
 0001:00009160       ?currentline@?A0xc8d640f7@@$$FYGHPAUlua_State@@PAUCallInfo@@@Z 1000a160 f   luaglue.obj
 0001:000091a4       ?constfolding@?A0xc8d640f7@@$$FYGHW4OpCode@@PAUexpdesc@@1@Z 1000a1a4 f   luaglue.obj
 0001:00009280       ?invertjump@?A0xc8d640f7@@$$FYGXPAUFuncState@@PAUexpdesc@@@Z 1000a280 f   luaglue.obj
 0001:000092c0       ?freeexp@?A0xc8d640f7@@$$FYGXPAUFuncState@@PAUexpdesc@@@Z 1000a2c0 f   luaglue.obj
 0001:000092e0       ?patchtestreg@?A0xc8d640f7@@$$FYGHPAUFuncState@@HH@Z 1000a2e0 f   luaglue.obj
 0001:00009354       ?need_value@?A0xc8d640f7@@$$FYGHPAUFuncState@@H@Z 1000a354 f   luaglue.obj
 0001:0000938c       ?luaB_corunning@?A0xc8d640f7@@$$FYGHPAUlua_State@@@Z 1000a38c f   luaglue.obj
 0001:000093a8       ?luaB_yield@?A0xc8d640f7@@$$FYGHPAUlua_State@@@Z 1000a3a8 f   luaglue.obj
 0001:000093c4       ?lua_setupvalue@@$$FYGPBDPAUlua_State@@HH@Z 1000a3c4 f   luaglue.obj
 0001:00009460       ?lua_getupvalue@@$$FYGPBDPAUlua_State@@HH@Z 1000a460 f   luaglue.obj
 0001:000094cc       ?lua_setfenv@@$$FYGHPAUlua_State@@H@Z 1000a4cc f   luaglue.obj
 0001:000095dc       ?lua_setmetatable@@$$FYGHPAUlua_State@@H@Z 1000a5dc f   luaglue.obj
 0001:000096f8       ?lua_rawset@@$$FYGXPAUlua_State@@H@Z 1000a6f8 f   luaglue.obj
 0001:000097b4       ?lua_getfenv@@$$FYGXPAUlua_State@@H@Z 1000a7b4 f   luaglue.obj
 0001:00009884       ?lua_getmetatable@@$$FYGHPAUlua_State@@H@Z 1000a884 f   luaglue.obj
 0001:00009920       ?lua_rawgeti@@$$FYGXPAUlua_State@@HH@Z 1000a920 f   luaglue.obj
 0001:000099a4       ?lua_rawget@@$$FYGXPAUlua_State@@H@Z 1000a9a4 f   luaglue.obj
 0001:00009a00       ?lua_tothread@@$$FYGPAUlua_State@@PAU1@H@Z 1000aa00 f   luaglue.obj
 0001:00009a24       ?lua_touserdata@@$$FYGPAXPAUlua_State@@H@Z 1000aa24 f   luaglue.obj
 0001:00009a58       ?lua_tocfunction@@$$FYGP6GHPAUlua_State@@@Z0H@Z 1000aa58 f   luaglue.obj
 0001:00009a8c       ?lua_toboolean@@$$FYGHPAUlua_State@@H@Z 1000aa8c f   luaglue.obj
 0001:00009abc       ?lua_tonumber@@$$FYGNPAUlua_State@@H@Z 1000aabc f   luaglue.obj
 0001:00009af4       ?lua_rawequal@@$$FYGHPAUlua_State@@HH@Z 1000aaf4 f   luaglue.obj
 0001:00009b30       ?lua_isuserdata@@$$FYGHPAUlua_State@@H@Z 1000ab30 f   luaglue.obj
 0001:00009b5c       ?lua_isnumber@@$$FYGHPAUlua_State@@H@Z 1000ab5c f   luaglue.obj
 0001:00009b90       ?lua_iscfunction@@$$FYGHPAUlua_State@@H@Z 1000ab90 f   luaglue.obj
 0001:00009bbc       ?lua_type@@$$FYGHPAUlua_State@@H@Z 1000abbc f   luaglue.obj
 0001:00009be4       ?lua_pushvalue@@$$FYGXPAUlua_State@@H@Z 1000abe4 f   luaglue.obj
 0001:00009c40       ?lua_replace@@$$FYGXPAUlua_State@@H@Z 1000ac40 f   luaglue.obj
 0001:00009da8       ?lua_insert@@$$FYGXPAUlua_State@@H@Z 1000ada8 f   luaglue.obj
 0001:00009e20       ?lua_remove@@$$FYGXPAUlua_State@@H@Z 1000ae20 f   luaglue.obj
 0001:00009e84       ?luaZ_read@@$$FYGIPAUZio@@PAXI@Z 1000ae84 f   luaglue.obj
 0001:00009ed8       ?get_compTM@?A0xc8d640f7@@$$FYGPBUlua_TValue@@PAUlua_State@@PAUTable@@1W4TMS@@@Z 1000aed8 f   luaglue.obj
 0001:00009f6c       ?laction@?A0xc8d640f7@@$$FYGXH@Z 1000af6c f   luaglue.obj
 0001:00009f94       ?unbound_search@?A0xc8d640f7@@$$FYGHPAUTable@@I@Z 1000af94 f   luaglue.obj
 0001:0000a004       ?numusehash@?A0xc8d640f7@@$$FYGHPBUTable@@PAH1@Z 1000b004 f   luaglue.obj
 0001:0000a054       ?findindex@?A0xc8d640f7@@$$FYGHPAUlua_State@@PAUTable@@PAUlua_TValue@@@Z 1000b054 f   luaglue.obj
 0001:0000a0dc       ?singlematch@?A0xc8d640f7@@$$FYGHHPBD0@Z 1000b0dc f   luaglue.obj
 0001:0000a128       ?newlstr@?A0xc8d640f7@@$$FYGPATTString@@PAUlua_State@@PBDII@Z 1000b128 f   luaglue.obj
 0001:0000a1d8       ?getiofile@?A0xc8d640f7@@$$FYGPAU_iobuf@@PAUlua_State@@H@Z 1000b1d8 f   luaglue.obj
 0001:0000a218       ?luaC_linkupval@@$$FYGXPAUlua_State@@PAUUpVal@@@Z 1000b218 f   luaglue.obj
 0001:0000a2a0       ?markroot@?A0xc8d640f7@@$$FYGXPAUlua_State@@@Z 1000b2a0 f   luaglue.obj
 0001:0000a340       ?luaF_close@@$$FYGXPAUlua_State@@PAUlua_TValue@@@Z 1000b340 f   luaglue.obj
 0001:0000a3bc       ?DumpConstants@?A0xc8d640f7@@$$FYGXPBUProto@@PAUDumpState@@@Z 1000b3bc f   luaglue.obj
 0001:0000a458       ?DumpVector@?A0xc8d640f7@@$$FYGXPBXHIPAUDumpState@@@Z 1000b458 f   luaglue.obj
 0001:0000a478       ?addinfo@?A0xc8d640f7@@$$FYGXPAUlua_State@@PBD@Z 1000b478 f   luaglue.obj
 0001:0000a4d0       ?getobjname@?A0xc8d640f7@@$$FYGPBDPAUlua_State@@PAUCallInfo@@HPAPBD@Z 1000b4d0 f   luaglue.obj
 0001:0000a638       ?luaG_checkcode@@$$FYGHPBUProto@@@Z 1000b638 f   luaglue.obj
 0001:0000a660       ?lua_setlocal@@$$FYGPBDPAUlua_State@@PBUlua_Debug@@H@Z 1000b660 f   luaglue.obj
 0001:0000a6b8       ?lua_getlocal@@$$FYGPBDPAUlua_State@@PBUlua_Debug@@H@Z 1000b6b8 f   luaglue.obj
 0001:0000a6f4       ?getthread@?A0xc8d640f7@@$$FYGPAUlua_State@@PAU2@PAH@Z 1000b6f4 f   luaglue.obj
 0001:0000a720       ?db_getfenv@?A0xc8d640f7@@$$FYGHPAUlua_State@@@Z 1000b720 f   luaglue.obj
 0001:0000a738       ?db_getregistry@?A0xc8d640f7@@$$FYGHPAUlua_State@@@Z 1000b738 f   luaglue.obj
 0001:0000a754       ?removevalues@?A0xc8d640f7@@$$FYGXPAUFuncState@@H@Z 1000b754 f   luaglue.obj
 0001:0000a780       ?load_aux@?A0xc8d640f7@@$$FYGHPAUlua_State@@H@Z 1000b780 f   luaglue.obj
 0001:0000a7a8       ?lua_topointer@@$$FYGPBXPAUlua_State@@H@Z 1000b7a8 f   luaglue.obj
 0001:0000a808       ?lua_isstring@@$$FYGHPAUlua_State@@H@Z 1000b808 f   luaglue.obj
 0001:0000a830       ?luaH_getn@@$$FYGHPAUTable@@@Z 1000b830 f   luaglue.obj
 0001:0000a89c       ?luaH_next@@$$FYGHPAUlua_State@@PAUTable@@PAUlua_TValue@@@Z 1000b89c f   luaglue.obj
 0001:0000a97c       ?min_expand@?A0xc8d640f7@@$$FYGPBDPAUMatchState@@PBD11@Z 1000b97c f   luaglue.obj
 0001:0000a9bc       ?max_expand@?A0xc8d640f7@@$$FYGPBDPAUMatchState@@PBD11@Z 1000b9bc f   luaglue.obj
 0001:0000aa0c       ?luaS_newlstr@@$$FYGPATTString@@PAUlua_State@@PBDI@Z 1000ba0c f   luaglue.obj
 0001:0000aaac       ?luaX_init@@$$FYGXPAUlua_State@@@Z 1000baac f   luaglue.obj
 0001:0000aafc       ?io_flush@?A0xc8d640f7@@$$FYGHPAUlua_State@@@Z 1000bafc f   luaglue.obj
 0001:0000ab28       ?DumpDebug@?A0xc8d640f7@@$$FYGXPBUProto@@PAUDumpState@@@Z 1000bb28 f   luaglue.obj
 0001:0000abe4       ?luaD_seterrorobj@@$$FYGXPAUlua_State@@HPAUlua_TValue@@@Z 1000bbe4 f   luaglue.obj
 0001:0000ac64       ?luaG_typeerror@@$$FYGXPAUlua_State@@PBUlua_TValue@@PBD@Z 1000bc64 f   luaglue.obj
 0001:0000accc       ?getfuncname@?A0xc8d640f7@@$$FYGPBDPAUlua_State@@PAUCallInfo@@PAPBD@Z 1000bccc f   luaglue.obj
 0001:0000ad64       ?auxgetinfo@?A0xc8d640f7@@$$FYGHPAUlua_State@@PBDPAUlua_Debug@@PATClosure@@PAUCallInfo@@@Z 1000bd64 f   luaglue.obj
 0001:0000aeb4       ?lua_next@@$$FYGHPAUlua_State@@H@Z 1000beb4 f   luaglue.obj
 0001:0000af40       ?luaV_tostring@@$$FYGHPAUlua_State@@PAUlua_TValue@@@Z 1000bf40 f   luaglue.obj
 0001:0000af84       ?luaT_init@@$$FYGXPAUlua_State@@@Z 1000bf84 f   luaglue.obj
 0001:0000aff8       ?match@?A0xc8d640f7@@$$FYGPBDPAUMatchState@@PBD1@Z 1000bff8 f   luaglue.obj
 0001:0000b2d4       ?DumpFunction@?A0xc8d640f7@@$$FYGXPBUProto@@PBTTString@@PAUDumpState@@@Z 1000c2d4 f   luaglue.obj
 0001:0000b364       ?luaD_pcall@@$$FYGHPAUlua_State@@P6GX0PAX@Z1HH@Z 1000c364 f   luaglue.obj
 0001:0000b400       ?resetstack@?A0xc8d640f7@@$$FYGXPAUlua_State@@H@Z 1000c400 f   luaglue.obj
 0001:0000b458       ?luaG_aritherror@@$$FYGXPAUlua_State@@PBUlua_TValue@@1@Z 1000c458 f   luaglue.obj
 0001:0000b480       ?luaG_concaterror@@$$FYGXPAUlua_State@@PAUlua_TValue@@1@Z 1000c480 f   luaglue.obj
 0001:0000b4a4       ?lua_objlen@@$$FYGIPAUlua_State@@H@Z 1000c4a4 f   luaglue.obj
 0001:0000b514       ?luaU_dump@@$$FYGHPAUlua_State@@PBUProto@@P6GH0PBXIPAX@Z3H@Z 1000c514 f   luaglue.obj
 0001:0000b558       ?luaD_throw@@$$FYGXPAUlua_State@@H@Z 1000c558 f   luaglue.obj
 0001:0000b5b8       ?lua_dump@@$$FYGHPAUlua_State@@P6GH0PBXIPAX@Z2@Z 1000c5b8 f   luaglue.obj
 0001:0000b61c       ?error@?A0xc8d640f7@@$$FYGXPAULoadState@@PBD@Z 1000c61c f   luaglue.obj
 0001:0000b644       ?luaM_realloc_@@$$FYGPAXPAUlua_State@@PAXII@Z 1000c644 f   luaglue.obj
 0001:0000b68c       ?luaM_growaux_@@$$FYGPAXPAUlua_State@@PAXPAHIHPBD@Z 1000c68c f   luaglue.obj
 0001:0000b6e8       ?luaX_setinput@@$$FYGXPAUlua_State@@PAULexState@@PAUZio@@PATTString@@@Z 1000c6e8 f   luaglue.obj
 0001:0000b7a8       ?save@?A0xc8d640f7@@$$FYGXPAULexState@@H@Z 1000c7a8 f   luaglue.obj
 0001:0000b828       ?checkSizes@?A0xc8d640f7@@$$FYGXPAUlua_State@@@Z 1000c828 f   luaglue.obj
 0001:0000b89c       ?luaF_freeclosure@@$$FYGXPAUlua_State@@PATClosure@@@Z 1000c89c f   luaglue.obj
 0001:0000b8d4       ?luaF_freeproto@@$$FYGXPAUlua_State@@PAUProto@@@Z 1000c8d4 f   luaglue.obj
 0001:0000b9b4       ?luaF_newproto@@$$FYGPAUProto@@PAUlua_State@@@Z 1000c9b4 f   luaglue.obj
 0001:0000ba4c       ?luaF_findupval@@$$FYGPAUUpVal@@PAUlua_State@@PAUlua_TValue@@@Z 1000ca4c f   luaglue.obj
 0001:0000baf4       ?luaF_newupval@@$$FYGPAUUpVal@@PAUlua_State@@@Z 1000caf4 f   luaglue.obj
 0001:0000bb28       ?luaF_newLclosure@@$$FYGPATClosure@@PAUlua_State@@HPAUTable@@@Z 1000cb28 f   luaglue.obj
 0001:0000bb78       ?luaF_newCclosure@@$$FYGPATClosure@@PAUlua_State@@HPAUTable@@@Z 1000cb78 f   luaglue.obj
 0001:0000bbb4       ?luaD_call@@$$FYGXPAUlua_State@@PAUlua_TValue@@H@Z 1000cbb4 f   luaglue.obj
 0001:0000bc3c       ?growCI@?A0xc8d640f7@@$$FYGPAUCallInfo@@PAUlua_State@@@Z 1000cc3c f   luaglue.obj
 0001:0000bc98       ?luaD_reallocstack@@$$FYGXPAUlua_State@@H@Z 1000cc98 f   luaglue.obj
 0001:0000bcfc       ?addk@?A0xc8d640f7@@$$FYGHPAUFuncState@@PAUlua_TValue@@1@Z 1000ccfc f   luaglue.obj
 0001:0000bde8       ?f_Ccall@?A0xc8d640f7@@$$FYGXPAUlua_State@@PAX@Z 1000cde8 f   luaglue.obj
 0001:0000bea0       ?f_call@?A0xc8d640f7@@$$FYGXPAUlua_State@@PAX@Z 1000cea0 f   luaglue.obj
 0001:0000bebc       ?lua_call@@$$FYGXPAUlua_State@@HH@Z 1000cebc f   luaglue.obj
 0001:0000bf58       ?luaZ_openspace@@$$FYGPADPAUlua_State@@PAUMbuffer@@I@Z 1000cf58 f   luaglue.obj
 0001:0000bfa0       ?LoadBlock@?A0xc8d640f7@@$$FYGXPAULoadState@@PAXI@Z 1000cfa0 f   luaglue.obj
 0001:0000bfc8       ?luaH_free@@$$FYGXPAUlua_State@@PAUTable@@@Z 1000cfc8 f   luaglue.obj
 0001:0000c030       ?setnodevector@?A0xc8d640f7@@$$FYGXPAUlua_State@@PAUTable@@H@Z 1000d030 f   luaglue.obj
 0001:0000c0d4       ?setarrayvector@?A0xc8d640f7@@$$FYGXPAUlua_State@@PAUTable@@H@Z 1000d0d4 f   luaglue.obj
 0001:0000c138       ?luaS_newudata@@$$FYGPATUdata@@PAUlua_State@@IPAUTable@@@Z 1000d138 f   luaglue.obj
 0001:0000c1a0       ?freestack@?A0xc8d640f7@@$$FYGXPAUlua_State@@0@Z 1000d1a0 f   luaglue.obj
 0001:0000c1f0       ?stack_init@?A0xc8d640f7@@$$FYGXPAUlua_State@@0@Z 1000d1f0 f   luaglue.obj
 0001:0000c2d4       ?registerlocalvar@?A0xc8d640f7@@$$FYGHPAULexState@@PATTString@@@Z 1000d2d4 f   luaglue.obj
 0001:0000c37c       ?dooptions@?A0xc8d640f7@@$$FYGXPAUlua_State@@H@Z 1000d37c f   luaglue.obj
 0001:0000c3b0       ?skip_sep@?A0xc8d640f7@@$$FYGHPAULexState@@@Z 1000d3b0 f   luaglue.obj
 0001:0000c478       ?check_next@?A0xc8d640f7@@$$FYGHPAULexState@@PBD@Z 1000d478 f   luaglue.obj
 0001:0000c4e4       ?txtToken@?A0xc8d640f7@@$$FYGPBDPAULexState@@H@Z 1000d4e4 f   luaglue.obj
 0001:0000c520       ?GCTM@?A0xc8d640f7@@$$FYGXPAUlua_State@@@Z 1000d520 f   luaglue.obj
 0001:0000c628       ?checkstacksizes@?A0xc8d640f7@@$$FYGXPAUlua_State@@PAUlua_TValue@@@Z 1000d628 f   luaglue.obj
 0001:0000c69c       ?luaD_growstack@@$$FYGXPAUlua_State@@H@Z 1000d69c f   luaglue.obj
 0001:0000c6d0       ?luaG_errormsg@@$$FYGXPAUlua_State@@@Z 1000d6d0 f   luaglue.obj
 0001:0000c76c       ?nilK@?A0xc8d640f7@@$$FYGHPAUFuncState@@@Z 1000d76c f   luaglue.obj
 0001:0000c79c       ?boolK@?A0xc8d640f7@@$$FYGHPAUFuncState@@H@Z 1000d79c f   luaglue.obj
 0001:0000c7c0       ?luaK_numberK@@$$FYGHPAUFuncState@@N@Z 1000d7c0 f   luaglue.obj
 0001:0000c7e4       ?luaK_stringK@@$$FYGHPAUFuncState@@PATTString@@@Z 1000d7e4 f   luaglue.obj
 0001:0000c808       ?lua_error@@$$FYGHPAUlua_State@@@Z 1000d808 f   luaglue.obj
 0001:0000c848       ?lua_cpcall@@$$FYGHPAUlua_State@@P6GH0@ZPAX@Z 1000d848 f   luaglue.obj
 0001:0000c87c       ?lua_pcall@@$$FYGHPAUlua_State@@HHH@Z 1000d87c f   luaglue.obj
 0001:0000c96c       ?lua_checkstack@@$$FYGHPAUlua_State@@H@Z 1000d96c f   luaglue.obj
 0001:0000c9d4       ?callTM@?A0xc8d640f7@@$$FYGXPAUlua_State@@PBUlua_TValue@@111@Z 1000d9d4 f   luaglue.obj
 0001:0000ca78       ?callTMres@?A0xc8d640f7@@$$FYGXPAUlua_State@@PAUlua_TValue@@PBU3@22@Z 1000da78 f   luaglue.obj
 0001:0000cb34       ?LoadHeader@?A0xc8d640f7@@$$FYGXPAULoadState@@@Z 1000db34 f   luaglue.obj
 0001:0000cb6c       ?LoadStringW@?A0xc8d640f7@@$$FYGPATTString@@PAULoadState@@@Z 1000db6c f   luaglue.obj
 0001:0000cbac       ?LoadNumber@?A0xc8d640f7@@$$FYGNPAULoadState@@@Z 1000dbac f   luaglue.obj
 0001:0000cbc8       ?LoadInt@?A0xc8d640f7@@$$FYGHPAULoadState@@@Z 1000dbc8 f   luaglue.obj
 0001:0000cbf0       ?LoadChar@?A0xc8d640f7@@$$FYGHPAULoadState@@@Z 1000dbf0 f   luaglue.obj
 0001:0000cc0c       ?luaH_new@@$$FYGPAUTable@@PAUlua_State@@HH@Z 1000dc0c f   luaglue.obj
 0001:0000cc68       ?resize@?A0xc8d640f7@@$$FYGXPAUlua_State@@PAUTable@@HH@Z 1000dc68 f   luaglue.obj
 0001:0000cd88       ?luaE_freethread@@$$FYGXPAUlua_State@@0@Z 1000dd88 f   luaglue.obj
 0001:0000cdb4       ?luaE_newthread@@$$FYGPAUlua_State@@PAU1@@Z 1000ddb4 f   luaglue.obj
 0001:0000ce28       ?f_luaopen@?A0xc8d640f7@@$$FYGXPAUlua_State@@PAX@Z 1000de28 f   luaglue.obj
 0001:0000cea4       ?open_func@?A0xc8d640f7@@$$FYGXPAULexState@@PAUFuncState@@@Z 1000dea4 f   luaglue.obj
 0001:0000cf8c       ?codestring@?A0xc8d640f7@@$$FYGXPAULexState@@PAUexpdesc@@PATTString@@@Z 1000df8c f   luaglue.obj
 0001:0000cfac       ?pushstr@?A0xc8d640f7@@$$FYGXPAUlua_State@@PBD@Z 1000dfac f   luaglue.obj
 0001:0000cff4       ?luaX_lexerror@@$$FYGXPAULexState@@PBDH@Z 1000dff4 f   luaglue.obj
 0001:0000d050       ?luaC_callGCTM@@$$FYGXPAUlua_State@@@Z 1000e050 f   luaglue.obj
 0001:0000d070       ?freeobj@?A0xc8d640f7@@$$FYGXPAUlua_State@@PATGCObject@@@Z 1000e070 f   luaglue.obj
 0001:0000d110       ?traversestack@?A0xc8d640f7@@$$FYGXPAUglobal_State@@PAUlua_State@@@Z 1000e110 f   luaglue.obj
 0001:0000d1ac       ?resume_error@?A0xc8d640f7@@$$FYGHPAUlua_State@@PBD@Z 1000e1ac f   luaglue.obj
 0001:0000d200       ?tryfuncTM@?A0xc8d640f7@@$$FYGPAUlua_TValue@@PAUlua_State@@PAU2@@Z 1000e200 f   luaglue.obj
 0001:0000d2a0       ?luaD_callhook@@$$FYGXPAUlua_State@@HH@Z 1000e2a0 f   luaglue.obj
 0001:0000d39c       ?luaL_checkstack@@$$FYGXPAUlua_State@@HPBD@Z 1000e39c f   luaglue.obj
 0001:0000d3c0       ?luaV_equalval@@$$FYGHPAUlua_State@@PBUlua_TValue@@1@Z 1000e3c0 f   luaglue.obj
 0001:0000d4b4       ?call_orderTM@?A0xc8d640f7@@$$FYGHPAUlua_State@@PBUlua_TValue@@1W4TMS@@@Z 1000e4b4 f   luaglue.obj
 0001:0000d51c       ?call_binTM@?A0xc8d640f7@@$$FYGHPAUlua_State@@PBUlua_TValue@@1PAU3@W4TMS@@@Z 1000e51c f   luaglue.obj
 0001:0000d55c       ?luaV_settable@@$$FYGXPAUlua_State@@PBUlua_TValue@@PAU2@2@Z 1000e55c f   luaglue.obj
 0001:0000d648       ?luaV_gettable@@$$FYGXPAUlua_State@@PBUlua_TValue@@PAU2@2@Z 1000e648 f   luaglue.obj
 0001:0000d710       ?traceexec@?A0xc8d640f7@@$$FYGXPAUlua_State@@PBI@Z 1000e710 f   luaglue.obj
 0001:0000d7bc       ?LoadDebug@?A0xc8d640f7@@$$FYGXPAULoadState@@PAUProto@@@Z 1000e7bc f   luaglue.obj
 0001:0000d910       ?LoadConstants@?A0xc8d640f7@@$$FYGXPAULoadState@@PAUProto@@@Z 1000e910 f   luaglue.obj
 0001:0000da74       ?LoadCode@?A0xc8d640f7@@$$FYGXPAULoadState@@PAUProto@@@Z 1000ea74 f   luaglue.obj
 0001:0000dac4       ?rehash@?A0xc8d640f7@@$$FYGXPAUlua_State@@PAUTable@@PBUlua_TValue@@@Z 1000eac4 f   luaglue.obj
 0001:0000db24       ?luaH_resizearray@@$$FYGXPAUlua_State@@PAUTable@@H@Z 1000eb24 f   luaglue.obj
 0001:0000db50       ?callallgcTM@?A0xc8d640f7@@$$FYGXPAUlua_State@@PAX@Z 1000eb50 f   luaglue.obj
 0001:0000db64       ?enterlevel@?A0xc8d640f7@@$$FYGXPAULexState@@@Z 1000eb64 f   luaglue.obj
 0001:0000dba4       ?errorlimit@?A0xc8d640f7@@$$FYGXPAUFuncState@@HPBD@Z 1000eba4 f   luaglue.obj
 0001:0000dbf0       ?trydecpoint@?A0xc8d640f7@@$$FYGXPAULexState@@PATSemInfo@@@Z 1000ebf0 f   luaglue.obj
 0001:0000dc54       ?luaX_syntaxerror@@$$FYGXPAULexState@@PBD@Z 1000ec54 f   luaglue.obj
 0001:0000dc70       ?sweeplist@?A0xc8d640f7@@$$FYGPAPATGCObject@@PAUlua_State@@PAPAT2@I@Z 1000ec70 f   luaglue.obj
 0001:0000dcf4       ?propagatemark@?A0xc8d640f7@@$$FYGHPAUglobal_State@@@Z 1000ecf4 f   luaglue.obj
 0001:0000de54       ?callrethooks@?A0xc8d640f7@@$$FYGPAUlua_TValue@@PAUlua_State@@PAU2@@Z 1000ee54 f   luaglue.obj
 0001:0000deb4       ?luaK_checkstack@@$$FYGXPAUFuncState@@H@Z 1000eeb4 f   luaglue.obj
 0001:0000def0       ?fixjump@?A0xc8d640f7@@$$FYGXPAUFuncState@@HH@Z 1000eef0 f   luaglue.obj
 0001:0000df48       ?lua_setfield@@$$FYGXPAUlua_State@@HPBD@Z 1000ef48 f   luaglue.obj
 0001:0000dfdc       ?lua_settable@@$$FYGXPAUlua_State@@H@Z 1000efdc f   luaglue.obj
 0001:0000e05c       ?lua_getfield@@$$FYGXPAUlua_State@@HPBD@Z 1000f05c f   luaglue.obj
 0001:0000e0ec       ?lua_gettable@@$$FYGXPAUlua_State@@H@Z 1000f0ec f   luaglue.obj
 0001:0000e138       ?lua_equal@@$$FYGHPAUlua_State@@HH@Z 1000f138 f   luaglue.obj
 0001:0000e190       ?Arith@?A0xc8d640f7@@$$FYGXPAUlua_State@@PAUlua_TValue@@PBU3@2W4TMS@@@Z 1000f190 f   luaglue.obj
 0001:0000e290       ?luaV_concat@@$$FYGXPAUlua_State@@HH@Z 1000f290 f   luaglue.obj
 0001:0000e400       ?lessequal@?A0xc8d640f7@@$$FYGHPAUlua_State@@PBUlua_TValue@@1@Z 1000f400 f   luaglue.obj
 0001:0000e488       ?luaV_lessthan@@$$FYGHPAUlua_State@@PBUlua_TValue@@1@Z 1000f488 f   luaglue.obj
 0001:0000e4f8       ?LoadFunction@?A0xc8d640f7@@$$FYGPAUProto@@PAULoadState@@PATTString@@@Z 1000f4f8 f   luaglue.obj
 0001:0000e5d4       ?traceback@?A0xc8d640f7@@$$FYGHPAUlua_State@@@Z 1000f5d4 f   luaglue.obj
 0001:0000e644       ?newkey@?A0xc8d640f7@@$$FYGPAUlua_TValue@@PAUlua_State@@PAUTable@@PBU2@@Z 1000f644 f   luaglue.obj
 0001:0000e704       ?listfield@?A0xc8d640f7@@$$FYGXPAULexState@@PAUConsControl@@@Z 1000f704 f   luaglue.obj
 0001:0000e750       ?indexupvalue@?A0xc8d640f7@@$$FYGHPAUFuncState@@PATTString@@PAUexpdesc@@@Z 1000f750 f   luaglue.obj
 0001:0000e860       ?new_localvar@?A0xc8d640f7@@$$FYGXPAULexState@@PATTString@@H@Z 1000f860 f   luaglue.obj
 0001:0000e8ac       ?error_expected@?A0xc8d640f7@@$$FYGXPAULexState@@H@Z 1000f8ac f   luaglue.obj
 0001:0000e8d8       ?getfield@?A0xc8d640f7@@$$FYGHPAUlua_State@@PBDH@Z 1000f8d8 f   luaglue.obj
 0001:0000e920       ?getboolfield@?A0xc8d640f7@@$$FYGHPAUlua_State@@PBD@Z 1000f920 f   luaglue.obj
 0001:0000e954       ?setboolfield@?A0xc8d640f7@@$$FYGXPAUlua_State@@PBDH@Z 1000f954 f   luaglue.obj
 0001:0000e978       ?setfield@?A0xc8d640f7@@$$FYGXPAUlua_State@@PBDH@Z 1000f978 f   luaglue.obj
 0001:0000e998       ?read_numeral@?A0xc8d640f7@@$$FYGXPAULexState@@PATSemInfo@@@Z 1000f998 f   luaglue.obj
 0001:0000eaa0       ?inclinenumber@?A0xc8d640f7@@$$FYGXPAULexState@@@Z 1000faa0 f   luaglue.obj
 0001:0000eb6c       ?aux_close@?A0xc8d640f7@@$$FYGHPAUlua_State@@@Z 1000fb6c f   luaglue.obj
 0001:0000eb9c       ?luaC_freeall@@$$FYGXPAUlua_State@@@Z 1000fb9c f   luaglue.obj
 0001:0000ebe4       ?propagateall@?A0xc8d640f7@@$$FYGIPAUglobal_State@@@Z 1000fbe4 f   luaglue.obj
 0001:0000ec08       ?luaD_poscall@@$$FYGHPAUlua_State@@PAUlua_TValue@@@Z 1000fc08 f   luaglue.obj
 0001:0000ecb4       ?treatstackoption@?A0xc8d640f7@@$$FYGXPAUlua_State@@0PBD@Z 1000fcb4 f   luaglue.obj
 0001:0000ece8       ?settabsi@?A0xc8d640f7@@$$FYGXPAUlua_State@@PBDH@Z 1000fce8 f   luaglue.obj
 0001:0000ed08       ?luaK_reserveregs@@$$FYGXPAUFuncState@@H@Z 1000fd08 f   luaglue.obj
 0001:0000ed28       ?luaK_concat@@$$FYGXPAUFuncState@@PAHH@Z 1000fd28 f   luaglue.obj
 0001:0000ed60       ?luaK_patchtohere@@$$FYGXPAUFuncState@@H@Z 1000fd60 f   luaglue.obj
 0001:0000ed80       ?patchlistaux@?A0xc8d640f7@@$$FYGXPAUFuncState@@HHHH@Z 1000fd80 f   luaglue.obj
 0001:0000edbc       ?lua_lessthan@@$$FYGHPAUlua_State@@HH@Z 1000fdbc f   luaglue.obj
 0001:0000ee00       ?luaU_undump@@$$FYGPAUProto@@PAUlua_State@@PAUZio@@PAUMbuffer@@PBD@Z 1000fe00 f   luaglue.obj
 0001:0000ee70       ?sort_comp@?A0xc8d640f7@@$$FYGHPAUlua_State@@HH@Z 1000fe70 f   luaglue.obj
 0001:0000eec8       ?luaH_setstr@@$$FYGPAUlua_TValue@@PAUlua_State@@PAUTable@@PATTString@@@Z 1000fec8 f   luaglue.obj
 0001:0000ef00       ?luaH_setnum@@$$FYGPAUlua_TValue@@PAUlua_State@@PAUTable@@H@Z 1000ff00 f   luaglue.obj
 0001:0000ef38       ?close_state@?A0xc8d640f7@@$$FYGXPAUlua_State@@@Z 1000ff38 f   luaglue.obj
 0001:0000efc8       ?singlevaraux@?A0xc8d640f7@@$$FYGHPAUFuncState@@PATTString@@PAUexpdesc@@H@Z 1000ffc8 f   luaglue.obj
 0001:0000f030       ?check@?A0xc8d640f7@@$$FYGXPAULexState@@H@Z 10010030 f   luaglue.obj
 0001:0000f04c       ?luaX_newstring@@$$FYGPATTString@@PAULexState@@PBDI@Z 1001004c f   luaglue.obj
 0001:0000f090       ?atomic@?A0xc8d640f7@@$$FYGXPAUlua_State@@@Z 10010090 f   luaglue.obj
 0001:0000f144       ?collectvalidlines@?A0xc8d640f7@@$$FYGXPAUlua_State@@PATClosure@@@Z 10010144 f   luaglue.obj
 0001:0000f1d4       ?luaK_setreturns@@$$FYGXPAUFuncState@@PAUexpdesc@@H@Z 100101d4 f   luaglue.obj
 0001:0000f284       ?luaK_patchlist@@$$FYGXPAUFuncState@@HH@Z 10010284 f   luaglue.obj
 0001:0000f2b0       ?dischargejpc@?A0xc8d640f7@@$$FYGXPAUFuncState@@@Z 100102b0 f   luaglue.obj
 0001:0000f2e0       ?lua_rawseti@@$$FYGXPAUlua_State@@HH@Z 100102e0 f   luaglue.obj
 0001:0000f398       ?set2@?A0xc8d640f7@@$$FYGXPAUlua_State@@HH@Z 10010398 f   luaglue.obj
 0001:0000f3b8       ?lua_close@@$$FYGXPAUlua_State@@@Z 100103b8 f   luaglue.obj
 0001:0000f420       ?lua_newstate@@$$FYGPAUlua_State@@P6GPAXPAX0II@Z0@Z 10010420 f   luaglue.obj
 0001:0000f564       ?anchor_token@?A0xc8d640f7@@$$FYGXPAULexState@@@Z 10010564 f   luaglue.obj
 0001:0000f5a0       ?read_string@?A0xc8d640f7@@$$FYGXPAULexState@@HPATSemInfo@@@Z 100105a0 f   luaglue.obj
 0001:0000fc34       ?read_long_string@?A0xc8d640f7@@$$FYGXPAULexState@@PATSemInfo@@H@Z 10010c34 f   luaglue.obj
 0001:00010008       ?singlestep@?A0xc8d640f7@@$$FYGHPAUlua_State@@@Z 10011008 f   luaglue.obj
 0001:00010140       ?lua_getinfo@@$$FYGHPAUlua_State@@PBDPAUlua_Debug@@@Z 10011140 f   luaglue.obj
 0001:00010218       ?luaK_code@?A0xc8d640f7@@$$FYGHPAUFuncState@@IH@Z 10011218 f   luaglue.obj
 0001:000102c4       ?luaL_unref@@$$FYGXPAUlua_State@@HH@Z 100112c4 f   luaglue.obj
 0001:00010314       ?luaL_ref@@$$FYGHPAUlua_State@@H@Z 10011314 f   luaglue.obj
 0001:00010398       ?luaL_where@@$$FYGXPAUlua_State@@H@Z 10011398 f   luaglue.obj
 0001:000103ec       ?luaL_argerror@@$$FYGHPAUlua_State@@HPBD@Z 100113ec f   luaglue.obj
 0001:00010474       ?auxsort@?A0xc8d640f7@@$$FYGXPAUlua_State@@HH@Z 10011474 f   luaglue.obj
 0001:00010610       ?setfenv@?A0xc8d640f7@@$$FYGXPAUlua_State@@@Z 10011610 f   luaglue.obj
 0001:00010650       ?llex@?A0xc8d640f7@@$$FYGHPAULexState@@PATSemInfo@@@Z 10011650 f   luaglue.obj
 0001:00010eb0       ?luaC_fullgc@@$$FYGXPAUlua_State@@@Z 10011eb0 f   luaglue.obj
 0001:00010f2c       ?luaC_step@@$$FYGXPAUlua_State@@@Z 10011f2c f   luaglue.obj
 0001:00010fd4       ?adjust_varargs@?A0xc8d640f7@@$$FYGPAUlua_TValue@@PAUlua_State@@PAUProto@@H@Z 10011fd4 f   luaglue.obj
 0001:00011110       ?db_setmetatable@?A0xc8d640f7@@$$FYGHPAUlua_State@@@Z 10012110 f   luaglue.obj
 0001:00011150       ?luaK_codeABx@@$$FYGHPAUFuncState@@W4OpCode@@HI@Z 10012150 f   luaglue.obj
 0001:00011178       ?luaK_codeABC@@$$FYGHPAUFuncState@@W4OpCode@@HHH@Z 10012178 f   luaglue.obj
 0001:000111a8       ?code_label@?A0xc8d640f7@@$$FYGHPAUFuncState@@HHH@Z 100121a8 f   luaglue.obj
 0001:000111c8       ?luaK_dischargevars@@$$FYGXPAUFuncState@@PAUexpdesc@@@Z 100121c8 f   luaglue.obj
 0001:00011274       ?luaK_ret@@$$FYGXPAUFuncState@@HH@Z 10012274 f   luaglue.obj
 0001:00011290       ?luaK_jump@@$$FYGHPAUFuncState@@@Z 10012290 f   luaglue.obj
 0001:000112c4       ?luaK_nil@@$$FYGXPAUFuncState@@HH@Z 100122c4 f   luaglue.obj
 0001:0001135c       ?luaL_checkany@@$$FYGXPAUlua_State@@H@Z 1001235c f   luaglue.obj
 0001:00011380       ?luaL_typerror@@$$FYGHPAUlua_State@@HPBD@Z 10012380 f   luaglue.obj
 0001:000113b4       ?lua_newuserdata@@$$FYGPAXPAUlua_State@@I@Z 100123b4 f   luaglue.obj
 0001:00011430       ?lua_concat@@$$FYGXPAUlua_State@@H@Z 10012430 f   luaglue.obj
 0001:000114f8       ?lua_gc@@$$FYGHPAUlua_State@@HH@Z 100124f8 f   luaglue.obj
 0001:000115d8       ?lua_createtable@@$$FYGXPAUlua_State@@HH@Z 100125d8 f   luaglue.obj
 0001:00011648       ?lua_pushcclosure@@$$FYGXPAUlua_State@@P6GH0@ZH@Z 10012648 f   luaglue.obj
 0001:00011724       ?lua_pushvfstring@@$$FYGPBDPAUlua_State@@PBDPAD@Z 10012724 f   luaglue.obj
 0001:00011758       ?lua_pushlstring@@$$FYGXPAUlua_State@@PBDI@Z 10012758 f   luaglue.obj
 0001:000117c8       ?lua_tolstring@@$$FYGPBDPAUlua_State@@HPAI@Z 100127c8 f   luaglue.obj
 0001:0001182c       ?lua_newthread@@$$FYGPAUlua_State@@PAU1@@Z 1001282c f   luaglue.obj
 0001:000118a0       ?incomplete@?A0xc8d640f7@@$$FYGHPAUlua_State@@H@Z 100128a0 f   luaglue.obj
 0001:000118e0       ?get_prompt@?A0xc8d640f7@@$$FYGPBDPAUlua_State@@H@Z 100128e0 f   luaglue.obj
 0001:00011934       ?docall@?A0xc8d640f7@@$$FYGHPAUlua_State@@HH@Z 10012934 f   luaglue.obj
 0001:0001199c       ?report@?A0xc8d640f7@@$$FYGHPAUlua_State@@H@Z 1001299c f   luaglue.obj
 0001:000119e0       ?createmetatable@?A0xc8d640f7@@$$FYGXPAUlua_State@@@Z 100129e0 f   luaglue.obj
 0001:00011a38       ?push_onecapture@?A0xc8d640f7@@$$FYGXPAUMatchState@@HPBD1@Z 10012a38 f   luaglue.obj
 0001:00011ac0       ?breakstat@?A0xc8d640f7@@$$FYGXPAULexState@@@Z 10012ac0 f   luaglue.obj
 0001:00011b24       ?check_conflict@?A0xc8d640f7@@$$FYGXPAULexState@@PAULHS_assign@@PAUexpdesc@@@Z 10012b24 f   luaglue.obj
 0001:00011b94       ?close_func@?A0xc8d640f7@@$$FYGXPAULexState@@@Z 10012b94 f   luaglue.obj
 0001:00011d74       ?pushclosure@?A0xc8d640f7@@$$FYGXPAULexState@@PAUFuncState@@PAUexpdesc@@@Z 10012d74 f   luaglue.obj
 0001:00011e70       ?leaveblock@?A0xc8d640f7@@$$FYGXPAUFuncState@@@Z 10012e70 f   luaglue.obj
 0001:00011ec4       ?loaderror@?A0xc8d640f7@@$$FYGXPAUlua_State@@PBD@Z 10012ec4 f   luaglue.obj
 0001:00011ef0       ?pushnexttemplate@?A0xc8d640f7@@$$FYGPBDPAUlua_State@@PBD@Z 10012ef0 f   luaglue.obj
 0001:00011f3c       ?ll_register@?A0xc8d640f7@@$$FYGPAPAXPAUlua_State@@PBD@Z 10012f3c f   luaglue.obj
 0001:00011fd0       ?luaX_lookahead@@$$FYGXPAULexState@@@Z 10012fd0 f   luaglue.obj
 0001:00011fec       ?luaX_next@@$$FYGXPAULexState@@@Z 10012fec f   luaglue.obj
 0001:00012034       ?test_eof@?A0xc8d640f7@@$$FYGHPAUlua_State@@PAU_iobuf@@@Z 10013034 f   luaglue.obj
 0001:00012064       ?newfile@?A0xc8d640f7@@$$FYGPAPAU_iobuf@@PAUlua_State@@@Z 10013064 f   luaglue.obj
 0001:00012098       ?io_type@?A0xc8d640f7@@$$FYGHPAUlua_State@@@Z 10013098 f   luaglue.obj
 0001:00012108       ?fileerror@?A0xc8d640f7@@$$FYGXPAUlua_State@@HPBD@Z 10013108 f   luaglue.obj
 0001:00012140       ?luaD_precall@@$$FYGHPAUlua_State@@PAUlua_TValue@@H@Z 10013140 f   luaglue.obj
 0001:0001236c       ?db_errorfb@?A0xc8d640f7@@$$FYGHPAUlua_State@@@Z 1001336c f   luaglue.obj
 0001:00012520       ?gethooktable@?A0xc8d640f7@@$$FYGXPAUlua_State@@@Z 10013520 f   luaglue.obj
 0001:0001257c       ?db_getmetatable@?A0xc8d640f7@@$$FYGHPAUlua_State@@@Z 1001357c f   luaglue.obj
 0001:000125a4       ?luaK_setlist@@$$FYGXPAUFuncState@@HHH@Z 100135a4 f   luaglue.obj
 0001:00012600       ?discharge2reg@?A0xc8d640f7@@$$FYGXPAUFuncState@@PAUexpdesc@@H@Z 10013600 f   luaglue.obj
 0001:000126e8       ?condjump@?A0xc8d640f7@@$$FYGHPAUFuncState@@W4OpCode@@HHH@Z 100136e8 f   luaglue.obj
 0001:0001270c       ?auxopen@?A0xc8d640f7@@$$FYGXPAUlua_State@@PBDP6GH0@Z2@Z 1001370c f   luaglue.obj
 0001:00012734       ?luaB_costatus@?A0xc8d640f7@@$$FYGHPAUlua_State@@@Z 10013734 f   luaglue.obj
 0001:000127d8       ?luaB_cocreate@?A0xc8d640f7@@$$FYGHPAUlua_State@@@Z 100137d8 f   luaglue.obj
 0001:00012820       ?luaB_newproxy@?A0xc8d640f7@@$$FYGHPAUlua_State@@@Z 10013820 f   luaglue.obj
 0001:000128c4       ?luaB_xpcall@?A0xc8d640f7@@$$FYGHPAUlua_State@@@Z 100138c4 f   luaglue.obj
 0001:00012910       ?luaB_pcall@?A0xc8d640f7@@$$FYGHPAUlua_State@@@Z 10013910 f   luaglue.obj
 0001:00012954       ?generic_reader@?A0xc8d640f7@@$$FYGPBDPAUlua_State@@PAXPAI@Z 10013954 f   luaglue.obj
 0001:000129b8       ?luaB_gcinfo@?A0xc8d640f7@@$$FYGHPAUlua_State@@@Z 100139b8 f   luaglue.obj
 0001:000129d8       ?luaB_rawequal@?A0xc8d640f7@@$$FYGHPAUlua_State@@@Z 100139d8 f   luaglue.obj
 0001:00012a04       ?luaB_print@?A0xc8d640f7@@$$FYGHPAUlua_State@@@Z 10013a04 f   luaglue.obj
 0001:00012aac       ?panic@?A0xc8d640f7@@$$FYGHPAUlua_State@@@Z 10013aac f   luaglue.obj
 0001:00012ad8       ?errfile@?A0xc8d640f7@@$$FYGHPAUlua_State@@PBDH@Z 10013ad8 f   luaglue.obj
 0001:00012b18       ?adjuststack@?A0xc8d640f7@@$$FYGXPAUluaL_Buffer@@@Z 10013b18 f   luaglue.obj
 0001:00012b7c       ?emptybuffer@?A0xc8d640f7@@$$FYGHPAUluaL_Buffer@@@Z 10013b7c f   luaglue.obj
 0001:00012bbc       ?luaL_findtable@@$$FYGPBDPAUlua_State@@HPBDH@Z 10013bbc f   luaglue.obj
 0001:00012c68       ?luaL_openlib@@$$FYGXPAUlua_State@@PBDPBUluaL_Reg@@H@Z 10013c68 f   luaglue.obj
 0001:00012d30       ?luaL_register@@$$FYGXPAUlua_State@@PBDPBUluaL_Reg@@@Z 10013d30 f   luaglue.obj
 0001:00012d48       ?luaL_checkudata@@$$FYGPAXPAUlua_State@@HPBD@Z 10013d48 f   luaglue.obj
 0001:00012d98       ?luaL_newmetatable@@$$FYGHPAUlua_State@@PBD@Z 10013d98 f   luaglue.obj
 0001:00012de4       ?tag_error@?A0xc8d640f7@@$$FYGXPAUlua_State@@HH@Z 10013de4 f   luaglue.obj
 0001:00012e00       ?lua_pushstring@@$$FYGXPAUlua_State@@PBD@Z 10013e00 f   luaglue.obj
 0001:00012e28       ?luaV_execute@@$$FYGXPAUlua_State@@H@Z 10013e28 f   luaglue.obj
 0001:000142dc       ?pushline@?A0xc8d640f7@@$$FYGHPAUlua_State@@H@Z 100152dc f   luaglue.obj
 0001:00014370       ?dolibrary@?A0xc8d640f7@@$$FYGHPAUlua_State@@PBD@Z 10015370 f   luaglue.obj
 0001:000143a8       ?getargs@?A0xc8d640f7@@$$FYGHPAUlua_State@@PAPADH@Z 100153a8 f   luaglue.obj
 0001:00014428       ?luaopen_table@@$$FYGHPAUlua_State@@@Z 10015428 f   luaglue.obj
 0001:00014448       ?luaopen_string@@$$FYGHPAUlua_State@@@Z 10015448 f   luaglue.obj
 0001:00014488       ?push_captures@?A0xc8d640f7@@$$FYGHPAUMatchState@@PBD1@Z 10015488 f   luaglue.obj
 0001:000144d4       ?block@?A0xc8d640f7@@$$FYGXPAULexState@@@Z 100154d4 f   luaglue.obj
 0001:000144fc       ?str_checkname@?A0xc8d640f7@@$$FYGPATTString@@PAULexState@@@Z 100154fc f   luaglue.obj
 0001:00014524       ?checknext@?A0xc8d640f7@@$$FYGXPAULexState@@H@Z 10015524 f   luaglue.obj
 0001:00014540       ?testnext@?A0xc8d640f7@@$$FYGHPAULexState@@H@Z 10015540 f   luaglue.obj
 0001:00014564       ?luaopen_os@@$$FYGHPAUlua_State@@@Z 10015564 f   luaglue.obj
 0001:00014584       ?os_tmpname@?A0xc8d640f7@@$$FYGHPAUlua_State@@@Z 10015584 f   luaglue.obj
 0001:000145bc       ?modinit@?A0xc8d640f7@@$$FYGXPAUlua_State@@PBD@Z 100155bc f   luaglue.obj
 0001:0001461c       ?gctm@?A0xc8d640f7@@$$FYGHPAUlua_State@@@Z 1001561c f   luaglue.obj
 0001:00014648       ?pusherror@?A0xc8d640f7@@$$FYGXPAUlua_State@@@Z 10015648 f   luaglue.obj
 0001:0001468c       ?luaopen_math@@$$FYGHPAUlua_State@@@Z 1001568c f   luaglue.obj
 0001:000146fc       ?createstdfile@?A0xc8d640f7@@$$FYGXPAUlua_State@@PAU_iobuf@@HPBD@Z 100156fc f   luaglue.obj
 0001:00014734       ?createmeta@?A0xc8d640f7@@$$FYGXPAUlua_State@@@Z 10015734 f   luaglue.obj
 0001:00014770       ?io_tmpfile@?A0xc8d640f7@@$$FYGHPAUlua_State@@@Z 10015770 f   luaglue.obj
 0001:0001479c       ?io_tostring@?A0xc8d640f7@@$$FYGHPAUlua_State@@@Z 1001579c f   luaglue.obj
 0001:000147d8       ?io_gc@?A0xc8d640f7@@$$FYGHPAUlua_State@@@Z 100157d8 f   luaglue.obj
 0001:00014820       ?io_fclose@?A0xc8d640f7@@$$FYGHPAUlua_State@@@Z 10015820 f   luaglue.obj
 0001:00014858       ?io_pclose@?A0xc8d640f7@@$$FYGHPAUlua_State@@@Z 10015858 f   luaglue.obj
 0001:00014890       ?tofile@?A0xc8d640f7@@$$FYGPAU_iobuf@@PAUlua_State@@@Z 10015890 f   luaglue.obj
 0001:000148c0       ?luaL_openlibs@@$$FYGXPAUlua_State@@@Z 100158c0 f   luaglue.obj
 0001:000148fc       ?resume@?A0xc8d640f7@@$$FYGXPAUlua_State@@PAX@Z 100158fc f   luaglue.obj
 0001:00014970       ?luaopen_debug@@$$FYGHPAUlua_State@@@Z 10015970 f   luaglue.obj
 0001:00014990       ?hookf@?A0xc8d640f7@@$$FYGXPAUlua_State@@PAUlua_Debug@@@Z 10015990 f   luaglue.obj
 0001:00014a00       ?settabss@?A0xc8d640f7@@$$FYGXPAUlua_State@@PBD1@Z 10015a00 f   luaglue.obj
 0001:00014a20       ?exp2reg@?A0xc8d640f7@@$$FYGXPAUFuncState@@PAUexpdesc@@H@Z 10015a20 f   luaglue.obj
 0001:00014ad8       ?discharge2anyreg@?A0xc8d640f7@@$$FYGXPAUFuncState@@PAUexpdesc@@@Z 10015ad8 f   luaglue.obj
 0001:00014b00       ?luaB_type@?A0xc8d640f7@@$$FYGHPAUlua_State@@@Z 10015b00 f   luaglue.obj
 0001:00014b2c       ?luaL_newstate@@$$FYGPAUlua_State@@XZ 10015b2c f   luaglue.obj
 0001:00014b58       ?luaL_addvalue@@$$FYGXPAUluaL_Buffer@@@Z 10015b58 f   luaglue.obj
 0001:00014bc0       ?luaL_pushresult@@$$FYGXPAUluaL_Buffer@@@Z 10015bc0 f   luaglue.obj
 0001:00014be8       ?luaL_prepbuffer@@$$FYGPADPAUluaL_Buffer@@@Z 10015be8 f   luaglue.obj
 0001:00014c0c       ?luaL_getmetafield@@$$FYGHPAUlua_State@@HPBD@Z 10015c0c f   luaglue.obj
 0001:00014c58       ?luaL_checkinteger@@$$FYGHPAUlua_State@@H@Z 10015c58 f   luaglue.obj
 0001:00014c84       ?luaL_checknumber@@$$FYGNPAUlua_State@@H@Z 10015c84 f   luaglue.obj
 0001:00014cbc       ?luaL_checklstring@@$$FYGPBDPAUlua_State@@HPAI@Z 10015cbc f   luaglue.obj
 0001:00014ce0       ?luaL_checktype@@$$FYGXPAUlua_State@@HH@Z 10015ce0 f   luaglue.obj
 0001:00014d00       ?sort@?A0xc8d640f7@@$$FYGHPAUlua_State@@@Z 10015d00 f   luaglue.obj
 0001:00014d50       ?tinsert@?A0xc8d640f7@@$$FYGHPAUlua_State@@@Z 10015d50 f   luaglue.obj
 0001:00014dd0       ?setn@?A0xc8d640f7@@$$FYGHPAUlua_State@@@Z 10015dd0 f   luaglue.obj
 0001:00014dfc       ?getn@?A0xc8d640f7@@$$FYGHPAUlua_State@@@Z 10015dfc f   luaglue.obj
 0001:00014e24       ?maxn@?A0xc8d640f7@@$$FYGHPAUlua_State@@@Z 10015e24 f   luaglue.obj
 0001:00014e80       ?foreach@?A0xc8d640f7@@$$FYGHPAUlua_State@@@Z 10015e80 f   luaglue.obj
 0001:00014ee8       ?foreachi@?A0xc8d640f7@@$$FYGHPAUlua_State@@@Z 10015ee8 f   luaglue.obj
 0001:00014f54       ?gmatch_aux@?A0xc8d640f7@@$$FYGHPAUlua_State@@@Z 10015f54 f   luaglue.obj
 0001:00014ff4       ?str_char@?A0xc8d640f7@@$$FYGHPAUlua_State@@@Z 10015ff4 f   luaglue.obj
 0001:00015068       ?str_upper@?A0xc8d640f7@@$$FYGHPAUlua_State@@@Z 10016068 f   luaglue.obj
 0001:000150d0       ?str_lower@?A0xc8d640f7@@$$FYGHPAUlua_State@@@Z 100160d0 f   luaglue.obj
 0001:00015138       ?str_reverse@?A0xc8d640f7@@$$FYGHPAUlua_State@@@Z 10016138 f   luaglue.obj
 0001:00015194       ?str_len@?A0xc8d640f7@@$$FYGHPAUlua_State@@@Z 10016194 f   luaglue.obj
 0001:000151b8       ?forbody@?A0xc8d640f7@@$$FYGXPAULexState@@HHHH@Z 100161b8 f   luaglue.obj
 0001:00015264       ?parlist@?A0xc8d640f7@@$$FYGXPAULexState@@@Z 10016264 f   luaglue.obj
 0001:00015334       ?singlevar@?A0xc8d640f7@@$$FYGXPAULexState@@PAUexpdesc@@@Z 10016334 f   luaglue.obj
 0001:00015368       ?checkname@?A0xc8d640f7@@$$FYGXPAULexState@@PAUexpdesc@@@Z 10016368 f   luaglue.obj
 0001:00015384       ?check_match@?A0xc8d640f7@@$$FYGXPAULexState@@HHH@Z 10016384 f   luaglue.obj
 0001:000153d0       ?os_time@?A0xc8d640f7@@$$FYGHPAUlua_State@@@Z 100163d0 f   luaglue.obj
 0001:000154ac       ?os_getenv@?A0xc8d640f7@@$$FYGHPAUlua_State@@@Z 100164ac f   luaglue.obj
 0001:000154d0       ?os_rename@?A0xc8d640f7@@$$FYGHPAUlua_State@@@Z 100164d0 f   luaglue.obj
 0001:00015508       ?os_remove@?A0xc8d640f7@@$$FYGHPAUlua_State@@@Z 10016508 f   luaglue.obj
 0001:00015538       ?ll_seeall@?A0xc8d640f7@@$$FYGHPAUlua_State@@@Z 10016538 f   luaglue.obj
 0001:00015588       ?ll_module@?A0xc8d640f7@@$$FYGHPAUlua_State@@@Z 10016588 f   luaglue.obj
 0001:00015648       ?ll_require@?A0xc8d640f7@@$$FYGHPAUlua_State@@@Z 10016648 f   luaglue.obj
 0001:000157a4       ?loader_preload@?A0xc8d640f7@@$$FYGHPAUlua_State@@@Z 100167a4 f   luaglue.obj
 0001:00015804       ?ll_sym@?A0xc8d640f7@@$$FYGP6GHPAUlua_State@@@Z0PAXPBD@Z 10016804 f   luaglue.obj
 0001:00015828       ?ll_load@?A0xc8d640f7@@$$FYGPAXPAUlua_State@@PBD@Z 10016828 f   luaglue.obj
 0001:00015848       ?math_randomseed@?A0xc8d640f7@@$$FYGHPAUlua_State@@@Z 10016848 f   luaglue.obj
 0001:00015864       ?math_random@?A0xc8d640f7@@$$FYGHPAUlua_State@@@Z 10016864 f   luaglue.obj
 0001:00015930       ?math_max@?A0xc8d640f7@@$$FYGHPAUlua_State@@@Z 10016930 f   luaglue.obj
 0001:00015974       ?math_min@?A0xc8d640f7@@$$FYGHPAUlua_State@@@Z 10016974 f   luaglue.obj
 0001:000159b8       ?math_ldexp@?A0xc8d640f7@@$$FYGHPAUlua_State@@@Z 100169b8 f   luaglue.obj
 0001:000159e4       ?math_frexp@?A0xc8d640f7@@$$FYGHPAUlua_State@@@Z 100169e4 f   luaglue.obj
 0001:00015a10       ?math_rad@?A0xc8d640f7@@$$FYGHPAUlua_State@@@Z 10016a10 f   luaglue.obj
 0001:00015a38       ?math_deg@?A0xc8d640f7@@$$FYGHPAUlua_State@@@Z 10016a38 f   luaglue.obj
 0001:00015a60       ?math_exp@?A0xc8d640f7@@$$FYGHPAUlua_State@@@Z 10016a60 f   luaglue.obj
 0001:00015a84       ?math_log10@?A0xc8d640f7@@$$FYGHPAUlua_State@@@Z 10016a84 f   luaglue.obj
 0001:00015aa8       ?math_log@?A0xc8d640f7@@$$FYGHPAUlua_State@@@Z 10016aa8 f   luaglue.obj
 0001:00015acc       ?math_pow@?A0xc8d640f7@@$$FYGHPAUlua_State@@@Z 10016acc f   luaglue.obj
 0001:00015af8       ?math_sqrt@?A0xc8d640f7@@$$FYGHPAUlua_State@@@Z 10016af8 f   luaglue.obj
 0001:00015b1c       ?math_modf@?A0xc8d640f7@@$$FYGHPAUlua_State@@@Z 10016b1c f   luaglue.obj
 0001:00015b4c       ?math_fmod@?A0xc8d640f7@@$$FYGHPAUlua_State@@@Z 10016b4c f   luaglue.obj
 0001:00015b78       ?math_floor@?A0xc8d640f7@@$$FYGHPAUlua_State@@@Z 10016b78 f   luaglue.obj
 0001:00015b9c       ?math_ceil@?A0xc8d640f7@@$$FYGHPAUlua_State@@@Z 10016b9c f   luaglue.obj
 0001:00015bc0       ?math_atan2@?A0xc8d640f7@@$$FYGHPAUlua_State@@@Z 10016bc0 f   luaglue.obj
 0001:00015bec       ?math_atan@?A0xc8d640f7@@$$FYGHPAUlua_State@@@Z 10016bec f   luaglue.obj
 0001:00015c10       ?math_acos@?A0xc8d640f7@@$$FYGHPAUlua_State@@@Z 10016c10 f   luaglue.obj
 0001:00015c34       ?math_asin@?A0xc8d640f7@@$$FYGHPAUlua_State@@@Z 10016c34 f   luaglue.obj
 0001:00015c58       ?math_tanh@?A0xc8d640f7@@$$FYGHPAUlua_State@@@Z 10016c58 f   luaglue.obj
 0001:00015c7c       ?math_tan@?A0xc8d640f7@@$$FYGHPAUlua_State@@@Z 10016c7c f   luaglue.obj
 0001:00015ca0       ?math_cosh@?A0xc8d640f7@@$$FYGHPAUlua_State@@@Z 10016ca0 f   luaglue.obj
 0001:00015cc4       ?math_cos@?A0xc8d640f7@@$$FYGHPAUlua_State@@@Z 10016cc4 f   luaglue.obj
 0001:00015ce8       ?math_sinh@?A0xc8d640f7@@$$FYGHPAUlua_State@@@Z 10016ce8 f   luaglue.obj
 0001:00015d0c       ?math_sin@?A0xc8d640f7@@$$FYGHPAUlua_State@@@Z 10016d0c f   luaglue.obj
 0001:00015d30       ?math_abs@?A0xc8d640f7@@$$FYGHPAUlua_State@@@Z 10016d30 f   luaglue.obj
 0001:00015d54       ?luaopen_io@@$$FYGHPAUlua_State@@@Z 10016d54 f   luaglue.obj
 0001:00015e20       ?f_flush@?A0xc8d640f7@@$$FYGHPAUlua_State@@@Z 10016e20 f   luaglue.obj
 0001:00015e4c       ?g_write@?A0xc8d640f7@@$$FYGHPAUlua_State@@PAU_iobuf@@H@Z 10016e4c f   luaglue.obj
 0001:00015ed4       ?read_chars@?A0xc8d640f7@@$$FYGHPAUlua_State@@PAU_iobuf@@I@Z 10016ed4 f   luaglue.obj
 0001:00015f3c       ?read_line@?A0xc8d640f7@@$$FYGHPAUlua_State@@PAU_iobuf@@@Z 10016f3c f   luaglue.obj
 0001:00015fb8       ?g_iofile@?A0xc8d640f7@@$$FYGHPAUlua_State@@HPBD@Z 10016fb8 f   luaglue.obj
 0001:00016024       ?io_close@?A0xc8d640f7@@$$FYGHPAUlua_State@@@Z 10017024 f   luaglue.obj
 0001:00016058       ?lua_resume@@$$FYGHPAUlua_State@@H@Z 10017058 f   luaglue.obj
 0001:000160d8       ?db_gethook@?A0xc8d640f7@@$$FYGHPAUlua_State@@@Z 100170d8 f   luaglue.obj
 0001:00016158       ?auxupvalue@?A0xc8d640f7@@$$FYGHPAUlua_State@@H@Z 10017158 f   luaglue.obj
 0001:000161b8       ?db_setlocal@?A0xc8d640f7@@$$FYGHPAUlua_State@@@Z 100171b8 f   luaglue.obj
 0001:00016228       ?db_getlocal@?A0xc8d640f7@@$$FYGHPAUlua_State@@@Z 10017228 f   luaglue.obj
 0001:0001629c       ?db_setfenv@?A0xc8d640f7@@$$FYGHPAUlua_State@@@Z 1001729c f   luaglue.obj
 0001:000162d0       ?codenot@?A0xc8d640f7@@$$FYGXPAUFuncState@@PAUexpdesc@@@Z 100172d0 f   luaglue.obj
 0001:00016388       ?jumponcond@?A0xc8d640f7@@$$FYGHPAUFuncState@@PAUexpdesc@@H@Z 10017388 f   luaglue.obj
 0001:00016400       ?luaK_exp2nextreg@@$$FYGXPAUFuncState@@PAUexpdesc@@@Z 10017400 f   luaglue.obj
 0001:00016430       ?auxresume@?A0xc8d640f7@@$$FYGHPAUlua_State@@0H@Z 10017430 f   luaglue.obj
 0001:000164c0       ?luaB_select@?A0xc8d640f7@@$$FYGHPAUlua_State@@@Z 100174c0 f   luaglue.obj
 0001:00016528       ?luaB_ipairs@?A0xc8d640f7@@$$FYGHPAUlua_State@@@Z 10017528 f   luaglue.obj
 0001:0001655c       ?ipairsaux@?A0xc8d640f7@@$$FYGHPAUlua_State@@@Z 1001755c f   luaglue.obj
 0001:0001659c       ?luaB_pairs@?A0xc8d640f7@@$$FYGHPAUlua_State@@@Z 1001759c f   luaglue.obj
 0001:000165cc       ?luaB_next@?A0xc8d640f7@@$$FYGHPAUlua_State@@@Z 100175cc f   luaglue.obj
 0001:00016600       ?luaB_rawset@?A0xc8d640f7@@$$FYGHPAUlua_State@@@Z 10017600 f   luaglue.obj
 0001:00016634       ?luaB_rawget@?A0xc8d640f7@@$$FYGHPAUlua_State@@@Z 10017634 f   luaglue.obj
 0001:00016664       ?luaB_setmetatable@?A0xc8d640f7@@$$FYGHPAUlua_State@@@Z 10017664 f   luaglue.obj
 0001:000166c4       ?luaB_getmetatable@?A0xc8d640f7@@$$FYGHPAUlua_State@@@Z 100176c4 f   luaglue.obj
 0001:000166fc       ?luaL_addlstring@@$$FYGXPAUluaL_Buffer@@PBDI@Z 100176fc f   luaglue.obj
 0001:00016738       ?luaL_callmeta@@$$FYGHPAUlua_State@@HPBD@Z 10017738 f   luaglue.obj
 0001:00016784       ?luaL_optinteger@@$$FYGHPAUlua_State@@HH@Z 10017784 f   luaglue.obj
 0001:000167a8       ?luaL_optnumber@@$$FYGNPAUlua_State@@HN@Z 100177a8 f   luaglue.obj
 0001:000167d0       ?luaL_optlstring@@$$FYGPBDPAUlua_State@@HPBDPAI@Z 100177d0 f   luaglue.obj
 0001:0001680c       ?luaL_checkoption@@$$FYGHPAUlua_State@@HPBDQBQBD@Z 1001780c f   luaglue.obj
 0001:0001686c       ?tconcat@?A0xc8d640f7@@$$FYGHPAUlua_State@@@Z 1001786c f   luaglue.obj
 0001:00016908       ?tremove@?A0xc8d640f7@@$$FYGHPAUlua_State@@@Z 10017908 f   luaglue.obj
 0001:0001696c       ?addquoted@?A0xc8d640f7@@$$FYGXPAUlua_State@@PAUluaL_Buffer@@H@Z 1001796c f   luaglue.obj
 0001:00016bc4       ?add_s@?A0xc8d640f7@@$$FYGXPAUMatchState@@PAUluaL_Buffer@@PBD2@Z 10017bc4 f   luaglue.obj
 0001:00016c78       ?gmatch@?A0xc8d640f7@@$$FYGHPAUlua_State@@@Z 10017c78 f   luaglue.obj
 0001:00016cb4       ?str_find_aux@?A0xc8d640f7@@$$FYGHPAUlua_State@@H@Z 10017cb4 f   luaglue.obj
 0001:00016ddc       ?writer@?A0xc8d640f7@@$$FYGHPAUlua_State@@PBXIPAX@Z 10017ddc f   luaglue.obj
 0001:00016df4       ?str_byte@?A0xc8d640f7@@$$FYGHPAUlua_State@@@Z 10017df4 f   luaglue.obj
 0001:00016e8c       ?str_rep@?A0xc8d640f7@@$$FYGHPAUlua_State@@@Z 10017e8c f   luaglue.obj
 0001:00016ed0       ?str_sub@?A0xc8d640f7@@$$FYGHPAUlua_State@@@Z 10017ed0 f   luaglue.obj
 0001:00016f38       ?prefixexp@?A0xc8d640f7@@$$FYGXPAULexState@@PAUexpdesc@@@Z 10017f38 f   luaglue.obj
 0001:00016f98       ?explist1@?A0xc8d640f7@@$$FYGHPAULexState@@PAUexpdesc@@@Z 10017f98 f   luaglue.obj
 0001:00016fd4       ?body@?A0xc8d640f7@@$$FYGXPAULexState@@PAUexpdesc@@HH@Z 10017fd4 f   luaglue.obj
 0001:00017058       ?lastlistfield@?A0xc8d640f7@@$$FYGXPAUFuncState@@PAUConsControl@@@Z 10018058 f   luaglue.obj
 0001:000170c8       ?closelistfield@?A0xc8d640f7@@$$FYGXPAUFuncState@@PAUConsControl@@@Z 100180c8 f   luaglue.obj
 0001:0001710c       ?adjust_assign@?A0xc8d640f7@@$$FYGXPAULexState@@HHPAUexpdesc@@@Z 1001810c f   luaglue.obj
 0001:00017174       ?os_exit@?A0xc8d640f7@@$$FYGHPAUlua_State@@@Z 10018174 f   luaglue.obj
 0001:00017194       ?os_setlocale@?A0xc8d640f7@@$$FYGHPAUlua_State@@@Z 10018194 f   luaglue.obj
 0001:000171d8       ?os_difftime@?A0xc8d640f7@@$$FYGHPAUlua_State@@@Z 100181d8 f   luaglue.obj
 0001:0001720c       ?os_date@?A0xc8d640f7@@$$FYGHPAUlua_State@@@Z 1001820c f   luaglue.obj
 0001:000173a4       ?os_execute@?A0xc8d640f7@@$$FYGHPAUlua_State@@@Z 100183a4 f   luaglue.obj
 0001:000173c8       ?ll_loadfunc@?A0xc8d640f7@@$$FYGHPAUlua_State@@PBD1@Z 100183c8 f   luaglue.obj
 0001:00017410       ?f_setvbuf@?A0xc8d640f7@@$$FYGHPAUlua_State@@@Z 10018410 f   luaglue.obj
 0001:0001746c       ?f_seek@?A0xc8d640f7@@$$FYGHPAUlua_State@@@Z 1001846c f   luaglue.obj
 0001:000174cc       ?f_write@?A0xc8d640f7@@$$FYGHPAUlua_State@@@Z 100184cc f   luaglue.obj
 0001:000174e8       ?io_write@?A0xc8d640f7@@$$FYGHPAUlua_State@@@Z 100184e8 f   luaglue.obj
 0001:00017508       ?io_readline@?A0xc8d640f7@@$$FYGHPAUlua_State@@@Z 10018508 f   luaglue.obj
 0001:0001758c       ?g_read@?A0xc8d640f7@@$$FYGHPAUlua_State@@PAU_iobuf@@H@Z 1001858c f   luaglue.obj
 0001:000176ac       ?aux_lines@?A0xc8d640f7@@$$FYGXPAUlua_State@@HH@Z 100186ac f   luaglue.obj
 0001:000176d4       ?io_output@?A0xc8d640f7@@$$FYGHPAUlua_State@@@Z 100186d4 f   luaglue.obj
 0001:000176f0       ?io_input@?A0xc8d640f7@@$$FYGHPAUlua_State@@@Z 100186f0 f   luaglue.obj
 0001:0001770c       ?io_popen@?A0xc8d640f7@@$$FYGHPAUlua_State@@@Z 1001870c f   luaglue.obj
 0001:00017754       ?io_open@?A0xc8d640f7@@$$FYGHPAUlua_State@@@Z 10018754 f   luaglue.obj
 0001:0001779c       ?db_sethook@?A0xc8d640f7@@$$FYGHPAUlua_State@@@Z 1001879c f   luaglue.obj
 0001:0001783c       ?db_setupvalue@?A0xc8d640f7@@$$FYGHPAUlua_State@@@Z 1001883c f   luaglue.obj
 0001:0001785c       ?db_getupvalue@?A0xc8d640f7@@$$FYGHPAUlua_State@@@Z 1001885c f   luaglue.obj
 0001:00017874       ?db_getinfo@?A0xc8d640f7@@$$FYGHPAUlua_State@@@Z 10018874 f   luaglue.obj
 0001:00017a24       ?luaK_goiffalse@?A0xc8d640f7@@$$FYGXPAUFuncState@@PAUexpdesc@@@Z 10018a24 f   luaglue.obj
 0001:00017aa8       ?luaK_goiftrue@@$$FYGXPAUFuncState@@PAUexpdesc@@@Z 10018aa8 f   luaglue.obj
 0001:00017b30       ?luaK_exp2anyreg@@$$FYGHPAUFuncState@@PAUexpdesc@@@Z 10018b30 f   luaglue.obj
 0001:00017b88       ?base_open@?A0xc8d640f7@@$$FYGXPAUlua_State@@@Z 10018b88 f   luaglue.obj
 0001:00017c54       ?luaB_auxwrap@?A0xc8d640f7@@$$FYGHPAUlua_State@@@Z 10018c54 f   luaglue.obj
 0001:00017ca8       ?luaB_coresume@?A0xc8d640f7@@$$FYGHPAUlua_State@@@Z 10018ca8 f   luaglue.obj
 0001:00017d0c       ?luaB_tostring@?A0xc8d640f7@@$$FYGHPAUlua_State@@@Z 10018d0c f   luaglue.obj
 0001:00017dc4       ?luaB_unpack@?A0xc8d640f7@@$$FYGHPAUlua_State@@@Z 10018dc4 f   luaglue.obj
 0001:00017e30       ?luaB_assert@?A0xc8d640f7@@$$FYGHPAUlua_State@@@Z 10018e30 f   luaglue.obj
 0001:00017e70       ?luaB_collectgarbage@?A0xc8d640f7@@$$FYGHPAUlua_State@@@Z 10018e70 f   luaglue.obj
 0001:00017efc       ?getfunc@?A0xc8d640f7@@$$FYGXPAUlua_State@@H@Z 10018efc f   luaglue.obj
 0001:00017f80       ?luaB_error@?A0xc8d640f7@@$$FYGHPAUlua_State@@@Z 10018f80 f   luaglue.obj
 0001:00017fc8       ?luaB_tonumber@?A0xc8d640f7@@$$FYGHPAUlua_State@@@Z 10018fc8 f   luaglue.obj
 0001:00018060       ?luaL_addstring@@$$FYGXPAUluaL_Buffer@@PBD@Z 10019060 f   luaglue.obj
 0001:0001807c       ?luaL_gsub@@$$FYGPBDPAUlua_State@@PBD11@Z 1001907c f   luaglue.obj
 0001:000180d8       ?str_format@?A0xc8d640f7@@$$FYGHPAUlua_State@@@Z 100190d8 f   luaglue.obj
 0001:0001834c       ?add_value@?A0xc8d640f7@@$$FYGXPAUMatchState@@PAUluaL_Buffer@@PBD2@Z 1001934c f   luaglue.obj
 0001:00018414       ?str_match@?A0xc8d640f7@@$$FYGHPAUlua_State@@@Z 10019414 f   luaglue.obj
 0001:0001842c       ?str_find@?A0xc8d640f7@@$$FYGHPAUlua_State@@@Z 1001942c f   luaglue.obj
 0001:00018444       ?str_dump@?A0xc8d640f7@@$$FYGHPAUlua_State@@@Z 10019444 f   luaglue.obj
 0001:00018490       ?retstat@?A0xc8d640f7@@$$FYGXPAULexState@@@Z 10019490 f   luaglue.obj
 0001:00018548       ?localstat@?A0xc8d640f7@@$$FYGXPAULexState@@@Z 10019548 f   luaglue.obj
 0001:000185a0       ?forlist@?A0xc8d640f7@@$$FYGXPAULexState@@PATTString@@@Z 100195a0 f   luaglue.obj
 0001:00018674       ?mkfuncname@?A0xc8d640f7@@$$FYGPBDPAUlua_State@@PBD@Z 10019674 f   luaglue.obj
 0001:000186c0       ?findfile@?A0xc8d640f7@@$$FYGPBDPAUlua_State@@PBD1@Z 100196c0 f   luaglue.obj
 0001:00018768       ?ll_loadlib@?A0xc8d640f7@@$$FYGHPAUlua_State@@@Z 10019768 f   luaglue.obj
 0001:000187c4       ?setprogdir@?A0xc8d640f7@@$$FYGXPAUlua_State@@@Z 100197c4 f   luaglue.obj
 0001:00018824       ?f_read@?A0xc8d640f7@@$$FYGHPAUlua_State@@@Z 10019824 f   luaglue.obj
 0001:00018840       ?io_read@?A0xc8d640f7@@$$FYGHPAUlua_State@@@Z 10019840 f   luaglue.obj
 0001:00018860       ?f_lines@?A0xc8d640f7@@$$FYGHPAUlua_State@@@Z 10019860 f   luaglue.obj
 0001:00018880       ?luaK_exp2val@@$$FYGXPAUFuncState@@PAUexpdesc@@@Z 10019880 f   luaglue.obj
 0001:000188ac       ?luaopen_base@@$$FYGHPAUlua_State@@@Z 100198ac f   luaglue.obj
 0001:000188d4       ?luaB_cowrap@?A0xc8d640f7@@$$FYGHPAUlua_State@@@Z 100198d4 f   luaglue.obj
 0001:000188f8       ?luaB_setfenv@?A0xc8d640f7@@$$FYGHPAUlua_State@@@Z 100198f8 f   luaglue.obj
 0001:00018978       ?luaB_getfenv@?A0xc8d640f7@@$$FYGHPAUlua_State@@@Z 10019978 f   luaglue.obj
 0001:000189ac       ?str_gsub@?A0xc8d640f7@@$$FYGHPAUlua_State@@@Z 100199ac f   luaglue.obj
 0001:00018a9c       ?yindex@?A0xc8d640f7@@$$FYGXPAULexState@@PAUexpdesc@@@Z 10019a9c f   luaglue.obj
 0001:00018acc       ?setpath@?A0xc8d640f7@@$$FYGXPAUlua_State@@PBD11@Z 10019acc f   luaglue.obj
 0001:00018b24       ?loader_Croot@?A0xc8d640f7@@$$FYGHPAUlua_State@@@Z 10019b24 f   luaglue.obj
 0001:00018ba8       ?loader_C@?A0xc8d640f7@@$$FYGHPAUlua_State@@@Z 10019ba8 f   luaglue.obj
 0001:00018bf0       ?io_lines@?A0xc8d640f7@@$$FYGHPAUlua_State@@@Z 10019bf0 f   luaglue.obj
 0001:00018c58       ?luaK_exp2RK@@$$FYGHPAUFuncState@@PAUexpdesc@@@Z 10019c58 f   luaglue.obj
 0001:00018d0c       ?recfield@?A0xc8d640f7@@$$FYGXPAULexState@@PAUConsControl@@@Z 10019d0c f   luaglue.obj
 0001:00018da8       ?luaopen_package@@$$FYGHPAUlua_State@@@Z 10019da8 f   luaglue.obj
 0001:00018ee0       ?luaK_infix@@$$FYGXPAUFuncState@@W4BinOpr@@PAUexpdesc@@@Z 10019ee0 f   luaglue.obj
 0001:00018f6c       ?codecomp@?A0xc8d640f7@@$$FYGXPAUFuncState@@W4OpCode@@HPAUexpdesc@@2@Z 10019f6c f   luaglue.obj
 0001:00018fbc       ?codearith@?A0xc8d640f7@@$$FYGXPAUFuncState@@W4OpCode@@PAUexpdesc@@2@Z 10019fbc f   luaglue.obj
 0001:0001902c       ?luaK_indexed@@$$FYGXPAUFuncState@@PAUexpdesc@@1@Z 1001a02c f   luaglue.obj
 0001:0001904c       ?luaK_self@@$$FYGXPAUFuncState@@PAUexpdesc@@1@Z 1001a04c f   luaglue.obj
 0001:0001909c       ?luaK_storevar@@$$FYGXPAUFuncState@@PAUexpdesc@@1@Z 1001a09c f   luaglue.obj
 0001:00019130       ?localfunc@?A0xc8d640f7@@$$FYGXPAULexState@@@Z 1001a130 f   luaglue.obj
 0001:000191a8       ?constructor@?A0xc8d640f7@@$$FYGXPAULexState@@PAUexpdesc@@@Z 1001a1a8 f   luaglue.obj
 0001:00019300       ?field@?A0xc8d640f7@@$$FYGXPAULexState@@PAUexpdesc@@@Z 1001a300 f   luaglue.obj
 0001:00019334       ?luaK_posfix@@$$FYGXPAUFuncState@@W4BinOpr@@PAUexpdesc@@2@Z 1001a334 f   luaglue.obj
 0001:000194e8       ?luaK_prefix@@$$FYGXPAUFuncState@@W4UnOpr@@PAUexpdesc@@@Z 1001a4e8 f   luaglue.obj
 0001:00019568       ?funcname@?A0xc8d640f7@@$$FYGHPAULexState@@PAUexpdesc@@@Z 1001a568 f   luaglue.obj
 0001:000195a8       ?funcargs@?A0xc8d640f7@@$$FYGXPAULexState@@PAUexpdesc@@@Z 1001a5a8 f   luaglue.obj
 0001:000196a4       ?funcstat@?A0xc8d640f7@@$$FYGXPAULexState@@H@Z 1001a6a4 f   luaglue.obj
 0001:000196e4       ?primaryexp@?A0xc8d640f7@@$$FYGXPAULexState@@PAUexpdesc@@@Z 1001a6e4 f   luaglue.obj
 0001:00019b48       ?assignment@?A0xc8d640f7@@$$FYGXPAULexState@@PAULHS_assign@@H@Z 1001ab48 f   luaglue.obj
 0001:00019c24       ?simpleexp@?A0xc8d640f7@@$$FYGXPAULexState@@PAUexpdesc@@@Z 1001ac24 f   luaglue.obj
 0001:00019f88       ?exprstat@?A0xc8d640f7@@$$FYGXPAULexState@@@Z 1001af88 f   luaglue.obj
 0001:00019fec       ?subexpr@?A0xc8d640f7@@$$FYG?AW4BinOpr@@PAULexState@@PAUexpdesc@@I@Z 1001afec f   luaglue.obj
 0001:0001a0a4       ?expr@?A0xc8d640f7@@$$FYGXPAULexState@@PAUexpdesc@@@Z 1001b0a4 f   luaglue.obj
 0001:0001a0bc       ?exp1@?A0xc8d640f7@@$$FYGHPAULexState@@@Z 1001b0bc f   luaglue.obj
 0001:0001a0e4       ?cond@?A0xc8d640f7@@$$FYGHPAULexState@@@Z 1001b0e4 f   luaglue.obj
 0001:0001a118       ?test_then_block@?A0xc8d640f7@@$$FYGHPAULexState@@@Z 1001b118 f   luaglue.obj
 0001:0001a148       ?fornum@?A0xc8d640f7@@$$FYGXPAULexState@@PATTString@@H@Z 1001b148 f   luaglue.obj
 0001:0001a204       ?repeatstat@?A0xc8d640f7@@$$FYGXPAULexState@@H@Z 1001b204 f   luaglue.obj
 0001:0001a2a0       ?whilestat@?A0xc8d640f7@@$$FYGXPAULexState@@H@Z 1001b2a0 f   luaglue.obj
 0001:0001a30c       ?ifstat@?A0xc8d640f7@@$$FYGXPAULexState@@H@Z 1001b30c f   luaglue.obj
 0001:0001a3a4       ?forstat@?A0xc8d640f7@@$$FYGXPAULexState@@H@Z 1001b3a4 f   luaglue.obj
 0001:0001a41c       ?statement@?A0xc8d640f7@@$$FYGHPAULexState@@@Z 1001b41c f   luaglue.obj
 0001:0001a540       ?chunk@?A0xc8d640f7@@$$FYGXPAULexState@@@Z 1001b540 f   luaglue.obj
 0001:0001a59c       ?luaY_parser@@$$FYGPAUProto@@PAUlua_State@@PAUZio@@PAUMbuffer@@PBD@Z 1001b59c f   luaglue.obj
 0001:0001a600       ?f_parser@?A0xc8d640f7@@$$FYGXPAUlua_State@@PAX@Z 1001b600 f   luaglue.obj
 0001:0001a6c8       ?luaD_protectedparser@@$$FYGHPAUlua_State@@PAUZio@@PBD@Z 1001b6c8 f   luaglue.obj
 0001:0001a73c       ?lua_load@@$$FYGHPAUlua_State@@P6GPBD0PAXPAI@Z1PBD@Z 1001b73c f   luaglue.obj
 0001:0001a76c       ?luaB_load@?A0xc8d640f7@@$$FYGHPAUlua_State@@@Z 1001b76c f   luaglue.obj
 0001:0001a7b0       ?luaL_loadbuffer@@$$FYGHPAUlua_State@@PBDI1@Z 1001b7b0 f   luaglue.obj
 0001:0001a7d8       ?luaL_loadfile@@$$FYGHPAUlua_State@@PBD@Z 1001b7d8 f   luaglue.obj
 0001:0001a950       ?handle_script@?A0xc8d640f7@@$$FYGHPAUlua_State@@PAPADH@Z 1001b950 f   luaglue.obj
 0001:0001a9d4       ?loadline@?A0xc8d640f7@@$$FYGHPAUlua_State@@@Z 1001b9d4 f   luaglue.obj
 0001:0001aa50       ?dostring@?A0xc8d640f7@@$$FYGHPAUlua_State@@PBD1@Z 1001ba50 f   luaglue.obj
 0001:0001aa88       ?dofile@?A0xc8d640f7@@$$FYGHPAUlua_State@@PBD@Z 1001ba88 f   luaglue.obj
 0001:0001aabc       ?loader_Lua@?A0xc8d640f7@@$$FYGHPAUlua_State@@@Z 1001babc f   luaglue.obj
 0001:0001aafc       ?db_debug@?A0xc8d640f7@@$$FYGHPAUlua_State@@@Z 1001bafc f   luaglue.obj
 0001:0001ab98       ?luaB_dofile@?A0xc8d640f7@@$$FYGHPAUlua_State@@@Z 1001bb98 f   luaglue.obj
 0001:0001abd8       ?luaB_loadfile@?A0xc8d640f7@@$$FYGHPAUlua_State@@@Z 1001bbd8 f   luaglue.obj
 0001:0001ac00       ?luaB_loadstring@?A0xc8d640f7@@$$FYGHPAUlua_State@@@Z 1001bc00 f   luaglue.obj
 0001:0001ac34       ?luaL_loadstring@@$$FYGHPAUlua_State@@PBD@Z 1001bc34 f   luaglue.obj
 0001:0001ac54       ?handle_luainit@?A0xc8d640f7@@$$FYGHPAUlua_State@@@Z 1001bc54 f   luaglue.obj
 0001:0001ac94       ?runargs@?A0xc8d640f7@@$$FYGHPAUlua_State@@PAPADH@Z 1001bc94 f   luaglue.obj
 0001:0001ad2c       ?dotty@?A0xc8d640f7@@$$FYGXPAUlua_State@@@Z 1001bd2c f   luaglue.obj
 0001:0001ade8       ?pmain@?A0xc8d640f7@@$$FYGHPAUlua_State@@@Z 1001bde8 f   luaglue.obj
 0001:0001aef8       ?main@@$$HYAHHPAPAD@Z      1001bef8 f   luaglue.obj
 0001:0001af60       ?arrayindex@?A0xc8d640f7@@YGHPBUlua_TValue@@@Z 1001bf60 f   luaglue.obj
 0001:0001af60       ?arrayindex@?A0xc8d640f7@@$$FYGHPBUlua_TValue@@@Z 1001bf60 f    CIL library: CIL module
 0001:0001afa0       ?luaO_pushfstring@@YAPBDPAUlua_State@@PBDZZ 1001bfa0 f   luaglue.obj
 0001:0001afa0       ?luaO_pushfstring@@$$FYAPBDPAUlua_State@@PBDZZ 1001bfa0 f    CIL library: CIL module
 0001:0001afe0       ?lua_tointeger@@$$FYGHPAUlua_State@@H@Z 1001bfe0 f    CIL library: CIL module
 0001:0001afe0       ?lua_tointeger@@YGHPAUlua_State@@H@Z 1001bfe0 f   luaglue.obj
 0001:0001b040       ?luaH_get@@$$FYGPBUlua_TValue@@PAUTable@@PBU1@@Z 1001c040 f    CIL library: CIL module
 0001:0001b040       ?luaH_get@@YGPBUlua_TValue@@PAUTable@@PBU1@@Z 1001c040 f   luaglue.obj
 0001:0001b0f0       ?luaG_runerror@@$$FYAXPAUlua_State@@PBDZZ 1001c0f0 f    CIL library: CIL module
 0001:0001b0f0       ?luaG_runerror@@YAXPAUlua_State@@PBDZZ 1001c0f0 f   luaglue.obj
 0001:0001b130       ?luaO_pushvfstring@@YGPBDPAUlua_State@@PBDPAD@Z 1001c130 f   luaglue.obj
 0001:0001b130       ?luaO_pushvfstring@@$$FYGPBDPAUlua_State@@PBDPAD@Z 1001c130 f    CIL library: CIL module
 0001:0001b480       ?lua_pushfstring@@YAPBDPAUlua_State@@PBDZZ 1001c480 f   luaglue.obj
 0001:0001b480       ?lua_pushfstring@@$$FYAPBDPAUlua_State@@PBDZZ 1001c480 f    CIL library: CIL module
 0001:0001b4d0       ?luaL_error@@YAHPAUlua_State@@PBDZZ 1001c4d0 f   luaglue.obj
 0001:0001b4d0       ?luaL_error@@$$FYAHPAUlua_State@@PBDZZ 1001c4d0 f    CIL library: CIL module
 0001:0001b520       __CorDllMain@12            1001c520 f   MSCOREE:mscoree.dll
 0001:0001b528       ???__E?Initialized@CurrentDomain@<CrtImplementationDetails>@@$$Q2HA@@YMXXZ@?A0x250abb45@@$$FYMXXZ 1001c528 f i MSVCMRT:mstartup.obj
 0001:0001b53c       ???__E?Uninitialized@CurrentDomain@<CrtImplementationDetails>@@$$Q2HA@@YMXXZ@?A0x250abb45@@$$FYMXXZ 1001c53c f i MSVCMRT:mstartup.obj
 0001:0001b550       ???__E?IsDefaultDomain@CurrentDomain@<CrtImplementationDetails>@@$$Q2_NA@@YMXXZ@?A0x250abb45@@$$FYMXXZ 1001c550 f i MSVCMRT:mstartup.obj
 0001:0001b564       ???__E?InitializedVtables@CurrentDomain@<CrtImplementationDetails>@@$$Q2W4State@Progress@2@A@@YMXXZ@?A0x250abb45@@$$FYMXXZ 1001c564 f i MSVCMRT:mstartup.obj
 0001:0001b578       ???__E?InitializedNative@CurrentDomain@<CrtImplementationDetails>@@$$Q2W4State@Progress@2@A@@YMXXZ@?A0x250abb45@@$$FYMXXZ 1001c578 f i MSVCMRT:mstartup.obj
 0001:0001b58c       ???__E?InitializedPerProcess@CurrentDomain@<CrtImplementationDetails>@@$$Q2W4State@Progress@2@A@@YMXXZ@?A0x250abb45@@$$FYMXXZ 1001c58c f i MSVCMRT:mstartup.obj
 0001:0001b5a0       ???__E?InitializedPerAppDomain@CurrentDomain@<CrtImplementationDetails>@@$$Q2W4State@Progress@2@A@@YMXXZ@?A0x250abb45@@$$FYMXXZ 1001c5a0 f i MSVCMRT:mstartup.obj
 0001:0001b5b3       __t2m@???__E?Initialized@CurrentDomain@<CrtImplementationDetails>@@$$Q2HA@@YMXXZ@?A0x250abb45@@YMXXZ 1001c5b3 f i MSVCMRT:mstartup.obj
 0001:0001b5b9       __t2m@???__E?Uninitialized@CurrentDomain@<CrtImplementationDetails>@@$$Q2HA@@YMXXZ@?A0x250abb45@@YMXXZ 1001c5b9 f i MSVCMRT:mstartup.obj
 0001:0001b5bf       __t2m@???__E?IsDefaultDomain@CurrentDomain@<CrtImplementationDetails>@@$$Q2_NA@@YMXXZ@?A0x250abb45@@YMXXZ 1001c5bf f i MSVCMRT:mstartup.obj
 0001:0001b5c5       __t2m@???__E?InitializedVtables@CurrentDomain@<CrtImplementationDetails>@@$$Q2W4State@Progress@2@A@@YMXXZ@?A0x250abb45@@YMXXZ 1001c5c5 f i MSVCMRT:mstartup.obj
 0001:0001b5cb       __t2m@???__E?InitializedNative@CurrentDomain@<CrtImplementationDetails>@@$$Q2W4State@Progress@2@A@@YMXXZ@?A0x250abb45@@YMXXZ 1001c5cb f i MSVCMRT:mstartup.obj
 0001:0001b5d1       __t2m@???__E?InitializedPerProcess@CurrentDomain@<CrtImplementationDetails>@@$$Q2W4State@Progress@2@A@@YMXXZ@?A0x250abb45@@YMXXZ 1001c5d1 f i MSVCMRT:mstartup.obj
 0001:0001b5d7       __t2m@???__E?InitializedPerAppDomain@CurrentDomain@<CrtImplementationDetails>@@$$Q2W4State@Progress@2@A@@YMXXZ@?A0x250abb45@@YMXXZ 1001c5d7 f i MSVCMRT:mstartup.obj
 0002:00000000       __imp__FreeLibrary@4       1001d000     kernel32:KERNEL32.dll
 0002:00000004       __imp__GetLastError@0      1001d004     kernel32:KERNEL32.dll
 0002:00000008       __imp__GetProcAddress@8    1001d008     kernel32:KERNEL32.dll
 0002:0000000c       __imp__LoadLibraryA@4      1001d00c     kernel32:KERNEL32.dll
 0002:00000010       __imp__GetModuleFileNameA@12 1001d010     kernel32:KERNEL32.dll
 0002:00000014       __imp__FormatMessageA@28   1001d014     kernel32:KERNEL32.dll
 0002:00000018       __imp__IsDebuggerPresent@0 1001d018     kernel32:KERNEL32.dll
 0002:0000001c       __imp__SetUnhandledExceptionFilter@4 1001d01c     kernel32:KERNEL32.dll
 0002:00000020       __imp__UnhandledExceptionFilter@4 1001d020     kernel32:KERNEL32.dll
 0002:00000024       __imp__GetCurrentProcess@0 1001d024     kernel32:KERNEL32.dll
 0002:00000028       __imp__TerminateProcess@8  1001d028     kernel32:KERNEL32.dll
 0002:0000002c       __imp__GetSystemTimeAsFileTime@4 1001d02c     kernel32:KERNEL32.dll
 0002:00000030       __imp__GetCurrentProcessId@0 1001d030     kernel32:KERNEL32.dll
 0002:00000034       __imp__GetCurrentThreadId@0 1001d034     kernel32:KERNEL32.dll
 0002:00000038       __imp__GetTickCount@0      1001d038     kernel32:KERNEL32.dll
 0002:0000003c       __imp__QueryPerformanceCounter@4 1001d03c     kernel32:KERNEL32.dll
 0002:00000040       __imp__DisableThreadLibraryCalls@4 1001d040     kernel32:KERNEL32.dll
 0002:00000044       __imp__InterlockedCompareExchange@12 1001d044     kernel32:KERNEL32.dll
 0002:00000048       __imp__Sleep@4             1001d048     kernel32:KERNEL32.dll
 0002:0000004c       __imp__InterlockedExchange@8 1001d04c     kernel32:KERNEL32.dll
 0002:00000050       \177KERNEL32_NULL_THUNK_DATA 1001d050     kernel32:KERNEL32.dll
 0002:00000054       __imp___crt_debugger_hook  1001d054     MSVCRT:MSVCR90.dll
 0002:00000058       __imp___except_handler4_common 1001d058     MSVCRT:MSVCR90.dll
 0002:0000005c       __imp___onexit             1001d05c     MSVCRT:MSVCR90.dll
 0002:00000060       __imp___lock               1001d060     MSVCRT:MSVCR90.dll
 0002:00000064       __imp____dllonexit         1001d064     MSVCRT:MSVCR90.dll
 0002:00000068       __imp___unlock             1001d068     MSVCRT:MSVCR90.dll
 0002:0000006c       __imp____clean_type_info_names_internal 1001d06c     MSVCRT:MSVCR90.dll
 0002:00000070       __imp_?_type_info_dtor_internal_method@type_info@@QAEXXZ 1001d070     MSVCRT:MSVCR90.dll
 0002:00000074       __imp_?terminate@@YAXXZ    1001d074     MSVCRT:MSVCR90.dll
 0002:00000078       __imp____CppXcptFilter     1001d078     MSVCRT:MSVCR90.dll
 0002:0000007c       __imp___adjust_fdiv        1001d07c     MSVCRT:MSVCR90.dll
 0002:00000080       __imp___amsg_exit          1001d080     MSVCRT:MSVCR90.dll
 0002:00000084       __imp___initterm_e         1001d084     MSVCRT:MSVCR90.dll
 0002:00000088       __imp___initterm           1001d088     MSVCRT:MSVCR90.dll
 0002:0000008c       __imp___decode_pointer     1001d08c     MSVCRT:MSVCR90.dll
 0002:00000090       __imp__strlen              1001d090     MSVCRT:MSVCR90.dll
 0002:00000094       __imp__memcpy              1001d094     MSVCRT:MSVCR90.dll
 0002:00000098       __imp__fscanf              1001d098     MSVCRT:MSVCR90.dll
 0002:0000009c       __imp__tmpfile             1001d09c     MSVCRT:MSVCR90.dll
 0002:000000a0       __imp__atan2               1001d0a0     MSVCRT:MSVCR90.dll
 0002:000000a4       __imp__strtod              1001d0a4     MSVCRT:MSVCR90.dll
 0002:000000a8       __imp__rename              1001d0a8     MSVCRT:MSVCR90.dll
 0002:000000ac       __imp__sprintf             1001d0ac     MSVCRT:MSVCR90.dll
 0002:000000b0       __imp___mktime64           1001d0b0     MSVCRT:MSVCR90.dll
 0002:000000b4       __imp__feof                1001d0b4     MSVCRT:MSVCR90.dll
 0002:000000b8       __imp__strncat             1001d0b8     MSVCRT:MSVCR90.dll
 0002:000000bc       __imp___gmtime64           1001d0bc     MSVCRT:MSVCR90.dll
 0002:000000c0       __imp__tmpnam              1001d0c0     MSVCRT:MSVCR90.dll
 0002:000000c4       __imp__sqrt                1001d0c4     MSVCRT:MSVCR90.dll
 0002:000000c8       __imp__cos                 1001d0c8     MSVCRT:MSVCR90.dll
 0002:000000cc       __imp__memcmp              1001d0cc     MSVCRT:MSVCR90.dll
 0002:000000d0       __imp__ceil                1001d0d0     MSVCRT:MSVCR90.dll
 0002:000000d4       __imp__modf                1001d0d4     MSVCRT:MSVCR90.dll
 0002:000000d8       __imp__ldexp               1001d0d8     MSVCRT:MSVCR90.dll
 0002:000000dc       __imp__isspace             1001d0dc     MSVCRT:MSVCR90.dll
 0002:000000e0       __imp___pclose             1001d0e0     MSVCRT:MSVCR90.dll
 0002:000000e4       __imp__pow                 1001d0e4     MSVCRT:MSVCR90.dll
 0002:000000e8       __imp__strerror            1001d0e8     MSVCRT:MSVCR90.dll
 0002:000000ec       __imp___isatty             1001d0ec     MSVCRT:MSVCR90.dll
 0002:000000f0       __imp__log                 1001d0f0     MSVCRT:MSVCR90.dll
 0002:000000f4       __imp__fputs               1001d0f4     MSVCRT:MSVCR90.dll
 0002:000000f8       __imp__ungetc              1001d0f8     MSVCRT:MSVCR90.dll
 0002:000000fc       __imp__strstr              1001d0fc     MSVCRT:MSVCR90.dll
 0002:00000100       __imp____iob_func          1001d100     MSVCRT:MSVCR90.dll
 0002:00000104       __imp__strcpy              1001d104     MSVCRT:MSVCR90.dll
 0002:00000108       __imp____CxxRegisterExceptionObject 1001d108     MSVCRT:MSVCR90.dll
 0002:0000010c       __imp__strchr              1001d10c     MSVCRT:MSVCR90.dll
 0002:00000110       __imp__signal              1001d110     MSVCRT:MSVCR90.dll
 0002:00000114       __imp__memchr              1001d114     MSVCRT:MSVCR90.dll
 0002:00000118       __imp__fflush              1001d118     MSVCRT:MSVCR90.dll
 0002:0000011c       __imp__tanh                1001d11c     MSVCRT:MSVCR90.dll
 0002:00000120       __imp___encoded_null       1001d120     MSVCRT:MSVCR90.dll
 0002:00000124       __imp__system              1001d124     MSVCRT:MSVCR90.dll
 0002:00000128       __imp___errno              1001d128     MSVCRT:MSVCR90.dll
 0002:0000012c       __imp__localeconv          1001d12c     MSVCRT:MSVCR90.dll
 0002:00000130       __imp__remove              1001d130     MSVCRT:MSVCR90.dll
 0002:00000134       __imp__sinh                1001d134     MSVCRT:MSVCR90.dll
 0002:00000138       __imp__isalnum             1001d138     MSVCRT:MSVCR90.dll
 0002:0000013c       __imp__tan                 1001d13c     MSVCRT:MSVCR90.dll
 0002:00000140       __imp__ispunct             1001d140     MSVCRT:MSVCR90.dll
 0002:00000144       __imp__strcoll             1001d144     MSVCRT:MSVCR90.dll
 0002:00000148       __imp__tolower             1001d148     MSVCRT:MSVCR90.dll
 0002:0000014c       __imp__strncpy             1001d14c     MSVCRT:MSVCR90.dll
 0002:00000150       __imp__fgets               1001d150     MSVCRT:MSVCR90.dll
 0002:00000154       __imp__fmod                1001d154     MSVCRT:MSVCR90.dll
 0002:00000158       __imp__fopen               1001d158     MSVCRT:MSVCR90.dll
 0002:0000015c       __imp__setvbuf             1001d15c     MSVCRT:MSVCR90.dll
 0002:00000160       __imp__isalpha             1001d160     MSVCRT:MSVCR90.dll
 0002:00000164       __imp__fread               1001d164     MSVCRT:MSVCR90.dll
 0002:00000168       __imp____CxxExceptionFilter 1001d168     MSVCRT:MSVCR90.dll
 0002:0000016c       __imp__fprintf             1001d16c     MSVCRT:MSVCR90.dll
 0002:00000170       __imp__clock               1001d170     MSVCRT:MSVCR90.dll
 0002:00000174       __imp__rand                1001d174     MSVCRT:MSVCR90.dll
 0002:00000178       __imp__strcmp              1001d178     MSVCRT:MSVCR90.dll
 0002:0000017c       __imp__srand               1001d17c     MSVCRT:MSVCR90.dll
 0002:00000180       __imp__isdigit             1001d180     MSVCRT:MSVCR90.dll
 0002:00000184       __imp__cosh                1001d184     MSVCRT:MSVCR90.dll
 0002:00000188       __imp__acos                1001d188     MSVCRT:MSVCR90.dll
 0002:0000018c       __imp____CxxUnregisterExceptionObject 1001d18c     MSVCRT:MSVCR90.dll
 0002:00000190       __imp__strftime            1001d190     MSVCRT:MSVCR90.dll
 0002:00000194       __imp__floor               1001d194     MSVCRT:MSVCR90.dll
 0002:00000198       __imp___fileno             1001d198     MSVCRT:MSVCR90.dll
 0002:0000019c       __imp__frexp               1001d19c     MSVCRT:MSVCR90.dll
 0002:000001a0       __imp__log10               1001d1a0     MSVCRT:MSVCR90.dll
 0002:000001a4       __imp__isupper             1001d1a4     MSVCRT:MSVCR90.dll
 0002:000001a8       __imp__atan                1001d1a8     MSVCRT:MSVCR90.dll
 0002:000001ac       __imp__ferror              1001d1ac     MSVCRT:MSVCR90.dll
 0002:000001b0       __imp__iscntrl             1001d1b0     MSVCRT:MSVCR90.dll
 0002:000001b4       __imp__fwrite              1001d1b4     MSVCRT:MSVCR90.dll
 0002:000001b8       __imp__strrchr             1001d1b8     MSVCRT:MSVCR90.dll
 0002:000001bc       __imp__toupper             1001d1bc     MSVCRT:MSVCR90.dll
 0002:000001c0       __imp__ftell               1001d1c0     MSVCRT:MSVCR90.dll
 0002:000001c4       __imp___CxxThrowException@8 1001d1c4     MSVCRT:MSVCR90.dll
 0002:000001c8       __imp__exp                 1001d1c8     MSVCRT:MSVCR90.dll
 0002:000001cc       __imp__strcspn             1001d1cc     MSVCRT:MSVCR90.dll
 0002:000001d0       __imp__islower             1001d1d0     MSVCRT:MSVCR90.dll
 0002:000001d4       __imp__realloc             1001d1d4     MSVCRT:MSVCR90.dll
 0002:000001d8       __imp__setlocale           1001d1d8     MSVCRT:MSVCR90.dll
 0002:000001dc       __imp__strtoul             1001d1dc     MSVCRT:MSVCR90.dll
 0002:000001e0       __imp___localtime64        1001d1e0     MSVCRT:MSVCR90.dll
 0002:000001e4       __imp__fseek               1001d1e4     MSVCRT:MSVCR90.dll
 0002:000001e8       __imp__getenv              1001d1e8     MSVCRT:MSVCR90.dll
 0002:000001ec       __imp__strpbrk             1001d1ec     MSVCRT:MSVCR90.dll
 0002:000001f0       __imp__abs                 1001d1f0     MSVCRT:MSVCR90.dll
 0002:000001f4       __imp__fclose              1001d1f4     MSVCRT:MSVCR90.dll
 0002:000001f8       __imp__isxdigit            1001d1f8     MSVCRT:MSVCR90.dll
 0002:000001fc       __imp__getc                1001d1fc     MSVCRT:MSVCR90.dll
 0002:00000200       __imp___difftime64         1001d200     MSVCRT:MSVCR90.dll
 0002:00000204       __imp__fabs                1001d204     MSVCRT:MSVCR90.dll
 0002:00000208       __imp____CxxDetectRethrow  1001d208     MSVCRT:MSVCR90.dll
 0002:0000020c       __imp___time64             1001d20c     MSVCRT:MSVCR90.dll
 0002:00000210       __imp____CxxQueryExceptionSize 1001d210     MSVCRT:MSVCR90.dll
 0002:00000214       __imp__clearerr            1001d214     MSVCRT:MSVCR90.dll
 0002:00000218       __imp__strcat              1001d218     MSVCRT:MSVCR90.dll
 0002:0000021c       __imp__exit                1001d21c     MSVCRT:MSVCR90.dll
 0002:00000220       __imp__asin                1001d220     MSVCRT:MSVCR90.dll
 0002:00000224       __imp__sin                 1001d224     MSVCRT:MSVCR90.dll
 0002:00000228       __imp___cexit              1001d228     MSVCRT:MSVCR90.dll
 0002:0000022c       __imp____FrameUnwindFilter 1001d22c     MSVCRT:MSVCR90.dll
 0002:00000230       __imp__free                1001d230     MSVCRT:MSVCR90.dll
 0002:00000234       __imp___malloc_crt         1001d234     MSVCRT:MSVCR90.dll
 0002:00000238       __imp___encode_pointer     1001d238     MSVCRT:MSVCR90.dll
 0002:0000023c       __imp_??3@YAXPAX@Z         1001d23c     MSVCRT:MSVCR90.dll
 0002:00000240       __imp___popen              1001d240     MSVCRT:MSVCR90.dll
 0002:00000244       __imp___HUGE               1001d244     MSVCRT:MSVCR90.dll
 0002:00000248       \177MSVCR90_NULL_THUNK_DATA 1001d248     MSVCRT:MSVCR90.dll
 0002:0000024c       __imp___CorDllMain@12      1001d24c     MSCOREE:mscoree.dll
 0002:00000250       \177mscoree_NULL_THUNK_DATA 1001d250     MSCOREE:mscoree.dll
 0002:00000254       __imp_?RegisterModuleUninitializer@<CrtImplementationDetails>@@YAXP$AAVEventHandler@System@@@Z 1001d254     MSVCMRT:msvcm90.dll
 0002:00000258       __imp_?ThrowNestedModuleLoadException@<CrtImplementationDetails>@@YAXP$AAVException@System@@0@Z 1001d258     MSVCMRT:msvcm90.dll
 0002:0000025c       __imp_?DoCallBackInDefaultDomain@<CrtImplementationDetails>@@YAXP6GJPAX@Z0@Z 1001d25c     MSVCMRT:msvcm90.dll
 0002:00000260       __imp_?signal@@YAP6MXH@ZHP6MXH@Z@Z 1001d260     MSVCMRT:msvcm90.dll
 0002:00000264       __imp_?ThrowModuleLoadException@<CrtImplementationDetails>@@YAXP$AAVString@System@@@Z 1001d264     MSVCMRT:msvcm90.dll
 0002:00000268       __imp_?DoDllLanguageSupportValidation@<CrtImplementationDetails>@@YAXXZ 1001d268     MSVCMRT:msvcm90.dll
 0002:0000026c       __imp_?ThrowModuleLoadException@<CrtImplementationDetails>@@YAXP$AAVString@System@@P$AAVException@3@@Z 1001d26c     MSVCMRT:msvcm90.dll
 0002:00000270       \177msvcm90_NULL_THUNK_DATA 1001d270     MSVCMRT:msvcm90.dll
 0002:00000274       ___xc_a                    1001d274     MSVCRT:cinitexe.obj
 0002:00000278       ___xc_z                    1001d278     MSVCRT:cinitexe.obj
 0002:0000027c       ___xi_a                    1001d27c     MSVCRT:cinitexe.obj
 0002:00000284       ___xi_z                    1001d284     MSVCRT:cinitexe.obj
 0002:000002e0       ??_7type_info@@6B@         1001d2e0     MSVCRT:ti_inst.obj
 0002:000002e4       __pRawDllMain              1001d2e4     MSVCRT:crtdll.obj
 0002:000002e4       __pDefaultRawDllMain       1001d2e4     MSVCRT:crtdll.obj
 0002:000002e8       ?ProcessDetach@NativeDll@<CrtImplementationDetails>@@0IB 1001d2e8     MSVCRT:tncleanup.obj
 0002:000002ec       ?ProcessAttach@NativeDll@<CrtImplementationDetails>@@0IB 1001d2ec     MSVCRT:tncleanup.obj
 0002:000002f0       ?ThreadAttach@NativeDll@<CrtImplementationDetails>@@0IB 1001d2f0     MSVCRT:tncleanup.obj
 0002:000002f4       ?ThreadDetach@NativeDll@<CrtImplementationDetails>@@0IB 1001d2f4     MSVCRT:tncleanup.obj
 0002:000002f8       ?ProcessVerifier@NativeDll@<CrtImplementationDetails>@@0IB 1001d2f8     MSVCRT:tncleanup.obj
 0002:00000304       __unep@?DoNothing@DefaultDomain@<CrtImplementationDetails>@@$$FCGJPAX@Z 1001d304     MSVCMRT:mstartup.obj
 0002:00000308       __unep@?_UninitializeDefaultDomain@LanguageSupport@<CrtImplementationDetails>@@$$FCGJPAX@Z 1001d308     MSVCMRT:mstartup.obj
 0002:00000354       ??_C@_0N@CBOMBLOK@luaNet_class?$AA@ 1001d354     LuaDLL.obj
 0002:00000364       ??_C@_0BC@PKHODAAB@luaNet_searchbase?$AA@ 1001d364     LuaDLL.obj
 0002:00000378       ??_C@_0BA@DEPJIDAO@luaNet_function?$AA@ 1001d378     LuaDLL.obj
 0002:00004128       ?luaX_tokens@@3QBQBDB      10021128     luaglue.obj
 0002:000048b8       ?luaO_nilobject_@@3Ulua_TValue@@B 100218b8     luaglue.obj
 0002:00004a18       ?luaP_opnames@@3QBQBDB     10021a18     luaglue.obj
 0002:00004ab4       ?luaP_opmodes@@3QBEB       10021ab4     luaglue.obj
 0002:000054d0       ?luaT_typenames@@3QBQBDB   100224d0     luaglue.obj
 0002:00005b84       __unep@?lstop@?A0xc8d640f7@@$$FYGXPAUlua_State@@PAUlua_Debug@@@Z 10022b84     luaglue.obj
 0002:00005b88       __unep@?f_Ccall@?A0xc8d640f7@@$$FYGXPAUlua_State@@PAX@Z 10022b88     luaglue.obj
 0002:00005b8c       __unep@?f_call@?A0xc8d640f7@@$$FYGXPAUlua_State@@PAX@Z 10022b8c     luaglue.obj
 0002:00005b90       __unep@?callallgcTM@?A0xc8d640f7@@$$FYGXPAUlua_State@@PAX@Z 10022b90     luaglue.obj
 0002:00005b94       __unep@?f_luaopen@?A0xc8d640f7@@$$FYGXPAUlua_State@@PAX@Z 10022b94     luaglue.obj
 0002:00005b98       __unep@?traceback@?A0xc8d640f7@@$$FYGHPAUlua_State@@@Z 10022b98     luaglue.obj
 0002:00005b9c       __unep@?panic@?A0xc8d640f7@@$$FYGHPAUlua_State@@@Z 10022b9c     luaglue.obj
 0002:00005ba0       __unep@?l_alloc@?A0xc8d640f7@@$$FYGPAXPAX0II@Z 10022ba0     luaglue.obj
 0002:00005ba4       __unep@?io_fclose@?A0xc8d640f7@@$$FYGHPAUlua_State@@@Z 10022ba4     luaglue.obj
 0002:00005ba8       __unep@?io_pclose@?A0xc8d640f7@@$$FYGHPAUlua_State@@@Z 10022ba8     luaglue.obj
 0002:00005bac       __unep@?resume@?A0xc8d640f7@@$$FYGXPAUlua_State@@PAX@Z 10022bac     luaglue.obj
 0002:00005bb0       __unep@?hookf@?A0xc8d640f7@@$$FYGXPAUlua_State@@PAUlua_Debug@@@Z 10022bb0     luaglue.obj
 0002:00005bb4       __unep@?gmatch_aux@?A0xc8d640f7@@$$FYGHPAUlua_State@@@Z 10022bb4     luaglue.obj
 0002:00005bb8       __unep@?io_readline@?A0xc8d640f7@@$$FYGHPAUlua_State@@@Z 10022bb8     luaglue.obj
 0002:00005bbc       __unep@?luaB_newproxy@?A0xc8d640f7@@$$FYGHPAUlua_State@@@Z 10022bbc     luaglue.obj
 0002:00005bc0       __unep@?luaB_next@?A0xc8d640f7@@$$FYGHPAUlua_State@@@Z 10022bc0     luaglue.obj
 0002:00005bc4       __unep@?luaB_pairs@?A0xc8d640f7@@$$FYGHPAUlua_State@@@Z 10022bc4     luaglue.obj
 0002:00005bc8       __unep@?ipairsaux@?A0xc8d640f7@@$$FYGHPAUlua_State@@@Z 10022bc8     luaglue.obj
 0002:00005bcc       __unep@?luaB_ipairs@?A0xc8d640f7@@$$FYGHPAUlua_State@@@Z 10022bcc     luaglue.obj
 0002:00005bd0       __unep@?writer@?A0xc8d640f7@@$$FYGHPAUlua_State@@PBXIPAX@Z 10022bd0     luaglue.obj
 0002:00005bd4       __unep@?luaB_auxwrap@?A0xc8d640f7@@$$FYGHPAUlua_State@@@Z 10022bd4     luaglue.obj
 0002:00005bd8       __unep@?gctm@?A0xc8d640f7@@$$FYGHPAUlua_State@@@Z 10022bd8     luaglue.obj
 0002:00005bdc       __unep@?luaY_parser@@$$FYGPAUProto@@PAUlua_State@@PAUZio@@PAUMbuffer@@PBD@Z 10022bdc     luaglue.obj
 0002:00005be0       __unep@?luaU_undump@@$$FYGPAUProto@@PAUlua_State@@PAUZio@@PAUMbuffer@@PBD@Z 10022be0     luaglue.obj
 0002:00005be4       __unep@?f_parser@?A0xc8d640f7@@$$FYGXPAUlua_State@@PAX@Z 10022be4     luaglue.obj
 0002:00005be8       __unep@?generic_reader@?A0xc8d640f7@@$$FYGPBDPAUlua_State@@PAXPAI@Z 10022be8     luaglue.obj
 0002:00005bec       __unep@?getS@?A0xc8d640f7@@$$FYGPBDPAUlua_State@@PAXPAI@Z 10022bec     luaglue.obj
 0002:00005bf0       __unep@?getF@?A0xc8d640f7@@$$FYGPBDPAUlua_State@@PAXPAI@Z 10022bf0     luaglue.obj
 0002:00005bf4       __unep@?pmain@?A0xc8d640f7@@$$FYGHPAUlua_State@@@Z 10022bf4     luaglue.obj
 0002:00005bf8       __load_config_used         10022bf8     MSVCRT:loadcfg.obj
 0002:00028f50       ??_R4type_info@@6B@        10045f50     MSVCRT:ti_inst.obj
 0002:00028f64       ??_R3type_info@@8          10045f64     MSVCRT:ti_inst.obj
 0002:00028f74       ??_R2type_info@@8          10045f74     MSVCRT:ti_inst.obj
 0002:00028f7c       ??_R1A@?0A@EA@type_info@@8 10045f7c     MSVCRT:ti_inst.obj
 0002:00028fa0       ___safe_se_handler_table   10045fa0     <linker-defined>
 0002:00028fa4       ___rtc_iaa                 10045fa4     MSVCRT:_initsect_.obj
 0002:00028fa8       ___rtc_izz                 10045fa8     MSVCRT:_initsect_.obj
 0002:00028fac       ___rtc_taa                 10045fac     MSVCRT:_initsect_.obj
 0002:00028fb0       ___rtc_tzz                 10045fb0     MSVCRT:_initsect_.obj
 0002:0002905c       __CT??_R0PAUlua_longjmp@@@84 1004605c     luaglue.obj
 0002:00029078       __CT??_R0PAX@84            10046078     luaglue.obj
 0002:00029094       __CTA2PAUlua_longjmp@@     10046094     luaglue.obj
 0002:000290a0       __TI2PAUlua_longjmp@@      100460a0     luaglue.obj
 0002:000290b0       __IMPORT_DESCRIPTOR_MSVCR90 100460b0     MSVCRT:MSVCR90.dll
 0002:000290c4       __IMPORT_DESCRIPTOR_KERNEL32 100460c4     kernel32:KERNEL32.dll
 0002:000290d8       __IMPORT_DESCRIPTOR_msvcm90 100460d8     MSVCMRT:msvcm90.dll
 0002:000290ec       __IMPORT_DESCRIPTOR_mscoree 100460ec     MSCOREE:mscoree.dll
 0002:00029100       __NULL_IMPORT_DESCRIPTOR   10046100     MSVCRT:MSVCR90.dll
 0003:00000000       ??_R0?AVtype_info@@@8      10047000     MSVCRT:ti_inst.obj
 0003:00000018       ___native_dllmain_reason   10047018     MSVCRT:natstart.obj
 0003:0000001c       ___native_vcclrit_reason   1004701c     MSVCRT:natstart.obj
 0003:00000020       ___security_cookie         10047020     MSVCRT:gs_cookie.obj
 0003:00000024       ___security_cookie_complement 10047024     MSVCRT:gs_cookie.obj
 0003:00000028       ?hasPerProcess@DefaultDomain@<CrtImplementationDetails>@@0W4State@TriBool@2@A 10047028     MSVCMRT:mstartup.obj
 0003:0000002c       ?hasNative@DefaultDomain@<CrtImplementationDetails>@@0W4State@TriBool@2@A 1004702c     MSVCMRT:mstartup.obj
 0003:00000030       __mep@?IsInDllMain@NativeDll@<CrtImplementationDetails>@@$$FSA_NXZ 10047030     MSVCMRT:mstartup.obj
 0003:00000034       __mep@?IsInProcessAttach@NativeDll@<CrtImplementationDetails>@@$$FSA_NXZ 10047034     MSVCMRT:mstartup.obj
 0003:00000038       __mep@?IsInProcessDetach@NativeDll@<CrtImplementationDetails>@@$$FSA_NXZ 10047038     MSVCMRT:mstartup.obj
 0003:0000003c       __mep@?IsInVcclrit@NativeDll@<CrtImplementationDetails>@@$$FSA_NXZ 1004703c     MSVCMRT:mstartup.obj
 0003:00000040       __mep@?IsSafeForManagedCode@NativeDll@<CrtImplementationDetails>@@$$FSA_NXZ 10047040     MSVCMRT:mstartup.obj
 0003:00000044       __mep@?DoNothing@DefaultDomain@<CrtImplementationDetails>@@$$FCGJPAX@Z 10047044     MSVCMRT:mstartup.obj
 0003:00000048       __mep@?HasPerProcess@DefaultDomain@<CrtImplementationDetails>@@$$FSA_NXZ 10047048     MSVCMRT:mstartup.obj
 0003:0000004c       __mep@?HasNative@DefaultDomain@<CrtImplementationDetails>@@$$FSA_NXZ 1004704c     MSVCMRT:mstartup.obj
 0003:00000050       __mep@?NeedsInitialization@DefaultDomain@<CrtImplementationDetails>@@$$FSA_NXZ 10047050     MSVCMRT:mstartup.obj
 0003:00000054       __mep@?NeedsUninitialization@DefaultDomain@<CrtImplementationDetails>@@$$FSA_NXZ 10047054     MSVCMRT:mstartup.obj
 0003:00000058       __mep@?Initialize@DefaultDomain@<CrtImplementationDetails>@@$$FSAXXZ 10047058     MSVCMRT:mstartup.obj
 0003:0000005c       __mep@?UninitializeAppDomain@LanguageSupport@<CrtImplementationDetails>@@$$FCAXXZ 1004705c     MSVCMRT:mstartup.obj
 0003:00000060       __mep@?_UninitializeDefaultDomain@LanguageSupport@<CrtImplementationDetails>@@$$FCGJPAX@Z 10047060     MSVCMRT:mstartup.obj
 0003:00000064       __mep@?UninitializeDefaultDomain@LanguageSupport@<CrtImplementationDetails>@@$$FCAXXZ 10047064     MSVCMRT:mstartup.obj
 0003:00000068       __mep@?DomainUnload@LanguageSupport@<CrtImplementationDetails>@@$$FCMXP$AAVObject@System@@P$AAVEventArgs@4@@Z 10047068     MSVCMRT:mstartup.obj
 0003:0000006c       __mep@?Cleanup@LanguageSupport@<CrtImplementationDetails>@@$$FAAMXP$AAVException@System@@@Z 1004706c     MSVCMRT:mstartup.obj
 0003:00000070       __mep@??0?$gcroot@P$AAVString@System@@@@$$FQAE@XZ 10047070     MSVCMRT:mstartup.obj
 0003:00000074       __mep@??1?$gcroot@P$AAVString@System@@@@$$FQAE@XZ 10047074     MSVCMRT:mstartup.obj
 0003:00000078       __mep@??4?$gcroot@P$AAVString@System@@@@$$FQAMAAU0@P$AAVString@System@@@Z 10047078     MSVCMRT:mstartup.obj
 0003:0000007c       __mep@??B?$gcroot@P$AAVString@System@@@@$$FQBMP$AAVString@System@@XZ 1004707c     MSVCMRT:mstartup.obj
 0003:00000080       __mep@?InitializeVtables@LanguageSupport@<CrtImplementationDetails>@@$$FAAEXXZ 10047080     MSVCMRT:mstartup.obj
 0003:00000084       __mep@?InitializeDefaultAppDomain@LanguageSupport@<CrtImplementationDetails>@@$$FAAEXXZ 10047084     MSVCMRT:mstartup.obj
 0003:00000088       __mep@?InitializeNative@LanguageSupport@<CrtImplementationDetails>@@$$FAAEXXZ 10047088     MSVCMRT:mstartup.obj
 0003:0000008c       __mep@?InitializePerProcess@LanguageSupport@<CrtImplementationDetails>@@$$FAAEXXZ 1004708c     MSVCMRT:mstartup.obj
 0003:00000090       __mep@?InitializePerAppDomain@LanguageSupport@<CrtImplementationDetails>@@$$FAAEXXZ 10047090     MSVCMRT:mstartup.obj
 0003:00000094       __mep@?InitializeUninitializer@LanguageSupport@<CrtImplementationDetails>@@$$FAAEXXZ 10047094     MSVCMRT:mstartup.obj
 0003:00000098       __mep@?_Initialize@LanguageSupport@<CrtImplementationDetails>@@$$FAAEXXZ 10047098     MSVCMRT:mstartup.obj
 0003:0000009c       __mep@?Initialize@LanguageSupport@<CrtImplementationDetails>@@$$FQAEXXZ 1004709c     MSVCMRT:mstartup.obj
 0003:000000a0       __mep@??0LanguageSupport@<CrtImplementationDetails>@@$$FQAE@XZ 100470a0     MSVCMRT:mstartup.obj
 0003:000000a4       __mep@??1LanguageSupport@<CrtImplementationDetails>@@$$FQAE@XZ 100470a4     MSVCMRT:mstartup.obj
 0003:000000a8       __mep@?.cctor@@$$FYMXXZ    100470a8     MSVCMRT:mstartup.obj
 0003:000000ac       __mep@???__E?Initialized@CurrentDomain@<CrtImplementationDetails>@@$$Q2HA@@YMXXZ@?A0x250abb45@@$$FYMXXZ 100470ac     MSVCMRT:mstartup.obj
 0003:000000b0       __mep@???__E?Uninitialized@CurrentDomain@<CrtImplementationDetails>@@$$Q2HA@@YMXXZ@?A0x250abb45@@$$FYMXXZ 100470b0     MSVCMRT:mstartup.obj
 0003:000000b4       __mep@???__E?IsDefaultDomain@CurrentDomain@<CrtImplementationDetails>@@$$Q2_NA@@YMXXZ@?A0x250abb45@@$$FYMXXZ 100470b4     MSVCMRT:mstartup.obj
 0003:000000b8       __mep@???__E?InitializedVtables@CurrentDomain@<CrtImplementationDetails>@@$$Q2W4State@Progress@2@A@@YMXXZ@?A0x250abb45@@$$FYMXXZ 100470b8     MSVCMRT:mstartup.obj
 0003:000000bc       __mep@???__E?InitializedNative@CurrentDomain@<CrtImplementationDetails>@@$$Q2W4State@Progress@2@A@@YMXXZ@?A0x250abb45@@$$FYMXXZ 100470bc     MSVCMRT:mstartup.obj
 0003:000000c0       __mep@???__E?InitializedPerProcess@CurrentDomain@<CrtImplementationDetails>@@$$Q2W4State@Progress@2@A@@YMXXZ@?A0x250abb45@@$$FYMXXZ 100470c0     MSVCMRT:mstartup.obj
 0003:000000c4       __mep@???__E?InitializedPerAppDomain@CurrentDomain@<CrtImplementationDetails>@@$$Q2W4State@Progress@2@A@@YMXXZ@?A0x250abb45@@$$FYMXXZ 100470c4     MSVCMRT:mstartup.obj
 0003:000000c8       __mep@?_handle@AtExitLock@<CrtImplementationDetails>@@$$FCMP$AAVGCHandle@InteropServices@Runtime@System@@XZ 100470c8     MSVCMRT:msilexit.obj
 0003:000000cc       __mep@?_lock_Set@AtExitLock@<CrtImplementationDetails>@@$$FCMXP$AAVObject@System@@@Z 100470cc     MSVCMRT:msilexit.obj
 0003:000000d0       __mep@?_lock_Get@AtExitLock@<CrtImplementationDetails>@@$$FCMP$AAVObject@System@@XZ 100470d0     MSVCMRT:msilexit.obj
 0003:000000d4       __mep@?_lock_Destruct@AtExitLock@<CrtImplementationDetails>@@$$FCAXXZ 100470d4     MSVCMRT:msilexit.obj
 0003:000000d8       __mep@?IsInitialized@AtExitLock@<CrtImplementationDetails>@@$$FSA_NXZ 100470d8     MSVCMRT:msilexit.obj
 0003:000000dc       __mep@?RemoveRef@AtExitLock@<CrtImplementationDetails>@@$$FSAXXZ 100470dc     MSVCMRT:msilexit.obj
 0003:000000e0       __mep@?Enter@AtExitLock@<CrtImplementationDetails>@@$$FSAXXZ 100470e0     MSVCMRT:msilexit.obj
 0003:000000e4       __mep@?Exit@AtExitLock@<CrtImplementationDetails>@@$$FSAXXZ 100470e4     MSVCMRT:msilexit.obj
 0003:000000e8       __mep@?__global_lock@?A0x11773762@@$$FYA_NXZ 100470e8     MSVCMRT:msilexit.obj
 0003:000000ec       __mep@?__global_unlock@?A0x11773762@@$$FYA_NXZ 100470ec     MSVCMRT:msilexit.obj
 0003:000000f0       __mep@?__dealloc_global_lock@?A0x11773762@@$$FYAXXZ 100470f0     MSVCMRT:msilexit.obj
 0003:000000f4       __mep@?_atexit_helper@@$$J0YMHP6MXXZPAIPAPAP6MXXZ2@Z 100470f4     MSVCMRT:msilexit.obj
 0003:000000f8       __mep@?_exit_callback@@$$J0YMXXZ 100470f8     MSVCMRT:msilexit.obj
 0003:000000fc       __mep@?_atexit_m@@$$J0YMHP6MXXZ@Z 100470fc     MSVCMRT:msilexit.obj
 0003:00000100       __mep@?_app_exit_callback@@$$J0YMXXZ 10047100     MSVCMRT:msilexit.obj
 0003:00000104       __mep@?_atexit_m_appdomain@@$$J0YMHP6MXXZ@Z 10047104     MSVCMRT:msilexit.obj
 0003:00000108       __mep@?_lock_Construct@AtExitLock@<CrtImplementationDetails>@@$$FCMXP$AAVObject@System@@@Z 10047108     MSVCMRT:msilexit.obj
 0003:0000010c       __mep@?AddRef@AtExitLock@<CrtImplementationDetails>@@$$FSAXXZ 1004710c     MSVCMRT:msilexit.obj
 0003:00000110       __mep@?__alloc_global_lock@?A0x11773762@@$$FYA_NXZ 10047110     MSVCMRT:msilexit.obj
 0003:00000114       __mep@?_initatexit_m@@$$J0YMHXZ 10047114     MSVCMRT:msilexit.obj
 0003:00000118       __mep@?_onexit_m@@$$J0YMP6MHXZP6MHXZ@Z 10047118     MSVCMRT:msilexit.obj
 0003:0000011c       __mep@?_initatexit_app_domain@@$$J0YMHXZ 1004711c     MSVCMRT:msilexit.obj
 0003:00000120       __mep@?_onexit_m_appdomain@@$$J0YMP6MHXZP6MHXZ@Z 10047120     MSVCMRT:msilexit.obj
 0003:00000124       __mep@?_initterm_e@@$$FYMHPAP6AHXZ0@Z 10047124     MSVCMRT:puremsilcode.obj
 0003:00000128       __mep@?_initterm@@$$FYMXPAP6AXXZ0@Z 10047128     MSVCMRT:puremsilcode.obj
 0003:0000012c       __mep@?Handle@ThisModule@<CrtImplementationDetails>@@$$FCM?AVModuleHandle@System@@XZ 1004712c     MSVCMRT:puremsilcode.obj
 0003:00000130       __mep@??$ResolveMethod@$$A6MPBXXZ@ThisModule@<CrtImplementationDetails>@@$$FSMP6MPBXXZP6MPBXXZ@Z 10047130     MSVCMRT:puremsilcode.obj
 0003:00000134       __mep@?_initterm_m@@$$FYMXPBQ6MPBXXZ0@Z 10047134     MSVCMRT:puremsilcode.obj
 0003:00000138       __mep@?___CxxCallUnwindDtor@@$$J0YMXP6MXPAX@Z0@Z 10047138     MSVCMRT:managdeh.obj
 0003:0000013c       __mep@?___CxxCallUnwindDelDtor@@$$J0YMXP6MXPAX@Z0@Z 1004713c     MSVCMRT:managdeh.obj
 0003:00000140       __mep@?___CxxCallUnwindVecDtor@@$$J0YMXP6MXPAXIHP6MX0@Z@Z0IH1@Z 10047140     MSVCMRT:managdeh.obj
 0003:00000144       ??_R0PAUlua_longjmp@@@8    10047144     luaglue.obj
 0003:00000160       ??_R0PAX@8                 10047160     luaglue.obj
 0003:00000188       __mep@?luaZ_init@@$$FYGXPAUlua_State@@PAUZio@@P6GPBD0PAXPAI@Z2@Z 10047188     luaglue.obj
 0003:0000018c       __mep@?luaZ_fill@@$$FYGHPAUZio@@@Z 1004718c     luaglue.obj
 0003:00000190       __mep@?l_strcmp@?A0xc8d640f7@@$$FYGHPBTTString@@0@Z 10047190     luaglue.obj
 0003:00000194       __mep@?luaU_header@@$$FYGXPAD@Z 10047194     luaglue.obj
 0003:00000198       __mep@?collectargs@?A0xc8d640f7@@$$FYGHPAPADPAH11@Z 10047198     luaglue.obj
 0003:0000019c       __mep@?l_message@?A0xc8d640f7@@$$FYGXPBD0@Z 1004719c     luaglue.obj
 0003:000001a0       __mep@?print_usage@?A0xc8d640f7@@$$FYGXXZ 100471a0     luaglue.obj
 0003:000001a4       __mep@?luaH_set@@$$FYGPAUlua_TValue@@PAUlua_State@@PAUTable@@PBU1@@Z 100471a4     luaglue.obj
 0003:000001a8       __mep@?luaH_getstr@@$$FYGPBUlua_TValue@@PAUTable@@PATTString@@@Z 100471a8     luaglue.obj
 0003:000001ac       __mep@?getfreepos@?A0xc8d640f7@@$$FYGPAUNode@@PAUTable@@@Z 100471ac     luaglue.obj
 0003:000001b0       __mep@?numusearray@?A0xc8d640f7@@$$FYGHPBUTable@@PAH@Z 100471b0     luaglue.obj
 0003:000001b4       __mep@?computesizes@?A0xc8d640f7@@$$FYGHQAHPAH@Z 100471b4     luaglue.obj
 0003:000001b8       __mep@?hashnum@?A0xc8d640f7@@$$FYGPAUNode@@PBUTable@@N@Z 100471b8     luaglue.obj
 0003:000001bc       __mep@?addintlen@?A0xc8d640f7@@$$FYGXPAD@Z 100471bc     luaglue.obj
 0003:000001c0       __mep@?scanformat@?A0xc8d640f7@@$$FYGPBDPAUlua_State@@PBDPAD@Z 100471c0     luaglue.obj
 0003:000001c4       __mep@?gfind_nodef@?A0xc8d640f7@@$$FYGHPAUlua_State@@@Z 100471c4     luaglue.obj
 0003:000001c8       __mep@?lmemfind@?A0xc8d640f7@@$$FYGPBDPBDI0I@Z 100471c8     luaglue.obj
 0003:000001cc       __mep@?start_capture@?A0xc8d640f7@@$$FYGPBDPAUMatchState@@PBD1H@Z 100471cc     luaglue.obj
 0003:000001d0       __mep@?matchbalance@?A0xc8d640f7@@$$FYGPBDPAUMatchState@@PBD1@Z 100471d0     luaglue.obj
 0003:000001d4       __mep@?match_class@?A0xc8d640f7@@$$FYGHHH@Z 100471d4     luaglue.obj
 0003:000001d8       __mep@?classend@?A0xc8d640f7@@$$FYGPBDPAUMatchState@@PBD@Z 100471d8     luaglue.obj
 0003:000001dc       __mep@?capture_to_close@?A0xc8d640f7@@$$FYGHPAUMatchState@@@Z 100471dc     luaglue.obj
 0003:000001e0       __mep@?check_capture@?A0xc8d640f7@@$$FYGHPAUMatchState@@H@Z 100471e0     luaglue.obj
 0003:000001e4       __mep@?posrelat@?A0xc8d640f7@@$$FYGHHI@Z 100471e4     luaglue.obj
 0003:000001e8       __mep@?preinit_state@?A0xc8d640f7@@$$FYGXPAUlua_State@@PAUglobal_State@@@Z 100471e8     luaglue.obj
 0003:000001ec       __mep@?block_follow@?A0xc8d640f7@@$$FYGHH@Z 100471ec     luaglue.obj
 0003:000001f0       __mep@?getbinopr@?A0xc8d640f7@@$$FYG?AW4BinOpr@@H@Z 100471f0     luaglue.obj
 0003:000001f4       __mep@?getunopr@?A0xc8d640f7@@$$FYG?AW4UnOpr@@H@Z 100471f4     luaglue.obj
 0003:000001f8       __mep@?enterblock@?A0xc8d640f7@@$$FYGXPAUFuncState@@PAUBlockCnt@@E@Z 100471f8     luaglue.obj
 0003:000001fc       __mep@?markupval@?A0xc8d640f7@@$$FYGXPAUFuncState@@H@Z 100471fc     luaglue.obj
 0003:00000200       __mep@?searchvar@?A0xc8d640f7@@$$FYGHPAUFuncState@@PATTString@@@Z 10047200     luaglue.obj
 0003:00000204       __mep@?removevars@?A0xc8d640f7@@$$FYGXPAULexState@@H@Z 10047204     luaglue.obj
 0003:00000208       __mep@?adjustlocalvars@?A0xc8d640f7@@$$FYGXPAULexState@@H@Z 10047208     luaglue.obj
 0003:0000020c       __mep@?init_exp@?A0xc8d640f7@@$$FYGXPAUexpdesc@@W4expkind@@H@Z 1004720c     luaglue.obj
 0003:00000210       __mep@?time@?A0xc8d640f7@@$$J0YA_JPA_J@Z 10047210     luaglue.obj
 0003:00000214       __mep@?mktime@?A0xc8d640f7@@$$J0YA_JPAUtm@@@Z 10047214     luaglue.obj
 0003:00000218       __mep@?localtime@?A0xc8d640f7@@$$J0YAPAUtm@@PB_J@Z 10047218     luaglue.obj
 0003:0000021c       __mep@?gmtime@?A0xc8d640f7@@$$J0YAPAUtm@@PB_J@Z 1004721c     luaglue.obj
 0003:00000220       __mep@?difftime@?A0xc8d640f7@@$$J0YAN_J0@Z 10047220     luaglue.obj
 0003:00000224       __mep@?luaO_chunkid@@$$FYGXPADPBDI@Z 10047224     luaglue.obj
 0003:00000228       __mep@?luaO_str2d@@$$FYGHPBDPAN@Z 10047228     luaglue.obj
 0003:0000022c       __mep@?luaO_rawequalObj@@$$FYGHPBUlua_TValue@@0@Z 1004722c     luaglue.obj
 0003:00000230       __mep@?luaO_log2@@$$FYGHI@Z 10047230     luaglue.obj
 0003:00000234       __mep@?luaO_fb2int@@$$FYGHH@Z 10047234     luaglue.obj
 0003:00000238       __mep@?luaO_int2fb@@$$FYGHI@Z 10047238     luaglue.obj
 0003:0000023c       __mep@?readable@?A0xc8d640f7@@$$FYGHPBD@Z 1004723c     luaglue.obj
 0003:00000240       __mep@?ll_unloadlib@?A0xc8d640f7@@$$FYGXPAX@Z 10047240     luaglue.obj
 0003:00000244       __mep@?luaM_toobig@@$$FYGPAXPAUlua_State@@@Z 10047244     luaglue.obj
 0003:00000248       __mep@?buffreplace@?A0xc8d640f7@@$$FYGXPAULexState@@DD@Z 10047248     luaglue.obj
 0003:0000024c       __mep@?luaX_token2str@@$$FYGPBDPAULexState@@H@Z 1004724c     luaglue.obj
 0003:00000250       __mep@?luaC_link@@$$FYGXPAUlua_State@@PATGCObject@@E@Z 10047250     luaglue.obj
 0003:00000254       __mep@?luaC_barrierback@@$$FYGXPAUlua_State@@PAUTable@@@Z 10047254     luaglue.obj
 0003:00000258       __mep@?iscleared@?A0xc8d640f7@@$$FYGHPBUlua_TValue@@H@Z 10047258     luaglue.obj
 0003:0000025c       __mep@?reallymarkobject@?A0xc8d640f7@@$$FYGXPAUglobal_State@@PATGCObject@@@Z 1004725c     luaglue.obj
 0003:00000260       __mep@?removeentry@?A0xc8d640f7@@$$FYGXPAUNode@@@Z 10047260     luaglue.obj
 0003:00000264       __mep@?luaF_getlocalname@@$$FYGPBDPBUProto@@HH@Z 10047264     luaglue.obj
 0003:00000268       __mep@?unlinkupval@?A0xc8d640f7@@$$FYGXPAUUpVal@@@Z 10047268     luaglue.obj
 0003:0000026c       __mep@?DumpBlock@?A0xc8d640f7@@$$FYGXPBXIPAUDumpState@@@Z 1004726c     luaglue.obj
 0003:00000270       __mep@?lua_yield@@$$FYGHPAUlua_State@@H@Z 10047270     luaglue.obj
 0003:00000274       __mep@?luaD_reallocCI@@$$FYGXPAUlua_State@@H@Z 10047274     luaglue.obj
 0003:00000278       __mep@?correctstack@?A0xc8d640f7@@$$FYGXPAUlua_State@@PAUlua_TValue@@@Z 10047278     luaglue.obj
 0003:0000027c       __mep@?luaD_rawrunprotected@@$$FYGHPAUlua_State@@P6GX0PAX@Z1@Z 1004727c     luaglue.obj
 0003:00000280       __mep@?restore_stack_limit@?A0xc8d640f7@@$$FYGXPAUlua_State@@@Z 10047280     luaglue.obj
 0003:00000284       __mep@?luaG_ordererror@@$$FYGHPAUlua_State@@PBUlua_TValue@@1@Z 10047284     luaglue.obj
 0003:00000288       __mep@?isinstack@?A0xc8d640f7@@$$FYGHPAUCallInfo@@PBUlua_TValue@@@Z 10047288     luaglue.obj
 0003:0000028c       __mep@?kname@?A0xc8d640f7@@$$FYGPBDPAUProto@@H@Z 1004728c     luaglue.obj
 0003:00000290       __mep@?checkArgMode@?A0xc8d640f7@@$$FYGHPBUProto@@HW4OpArgMask@@@Z 10047290     luaglue.obj
 0003:00000294       __mep@?luaG_checkopenop@@$$FYGHI@Z 10047294     luaglue.obj
 0003:00000298       __mep@?precheck@?A0xc8d640f7@@$$FYGHPBUProto@@@Z 10047298     luaglue.obj
 0003:0000029c       __mep@?info_tailcall@?A0xc8d640f7@@$$FYGXPAUlua_Debug@@@Z 1004729c     luaglue.obj
 0003:000002a0       __mep@?funcinfo@?A0xc8d640f7@@$$FYGXPAUlua_Debug@@PATClosure@@@Z 100472a0     luaglue.obj
 0003:000002a4       __mep@?getluaproto@?A0xc8d640f7@@$$FYGPAUProto@@PAUCallInfo@@@Z 100472a4     luaglue.obj
 0003:000002a8       __mep@?lua_getstack@@$$FYGHPAUlua_State@@HPAUlua_Debug@@@Z 100472a8     luaglue.obj
 0003:000002ac       __mep@?lua_gethookcount@@$$FYGHPAUlua_State@@@Z 100472ac     luaglue.obj
 0003:000002b0       __mep@?lua_gethookmask@@$$FYGHPAUlua_State@@@Z 100472b0     luaglue.obj
 0003:000002b4       __mep@?lua_gethook@@$$FYGP6GXPAUlua_State@@PAUlua_Debug@@@Z0@Z 100472b4     luaglue.obj
 0003:000002b8       __mep@?lua_sethook@@$$FYGHPAUlua_State@@P6GX0PAUlua_Debug@@@ZHH@Z 100472b8     luaglue.obj
 0003:000002bc       __mep@?currentpc@?A0xc8d640f7@@$$FYGHPAUlua_State@@PAUCallInfo@@@Z 100472bc     luaglue.obj
 0003:000002c0       __mep@?unmakemask@?A0xc8d640f7@@$$FYGPADHPAD@Z 100472c0     luaglue.obj
 0003:000002c4       __mep@?makemask@?A0xc8d640f7@@$$FYGHPBDH@Z 100472c4     luaglue.obj
 0003:000002c8       __mep@?luaK_fixline@@$$FYGXPAUFuncState@@H@Z 100472c8     luaglue.obj
 0003:000002cc       __mep@?luaK_setoneret@@$$FYGXPAUFuncState@@PAUexpdesc@@@Z 100472cc     luaglue.obj
 0003:000002d0       __mep@?freereg@?A0xc8d640f7@@$$FYGXPAUFuncState@@H@Z 100472d0     luaglue.obj
 0003:000002d4       __mep@?getjumpcontrol@?A0xc8d640f7@@$$FYGPAIPAUFuncState@@H@Z 100472d4     luaglue.obj
 0003:000002d8       __mep@?getjump@?A0xc8d640f7@@$$FYGHPAUFuncState@@H@Z 100472d8     luaglue.obj
 0003:000002dc       __mep@?luaK_getlabel@@$$FYGHPAUFuncState@@@Z 100472dc     luaglue.obj
 0003:000002e0       __mep@?isnumeral@?A0xc8d640f7@@$$FYGHPAUexpdesc@@@Z 100472e0     luaglue.obj
 0003:000002e4       __mep@?l_alloc@?A0xc8d640f7@@$$FYGPAXPAX0II@Z 100472e4     luaglue.obj
 0003:000002e8       __mep@?getS@?A0xc8d640f7@@$$FYGPBDPAUlua_State@@PAXPAI@Z 100472e8     luaglue.obj
 0003:000002ec       __mep@?getF@?A0xc8d640f7@@$$FYGPBDPAUlua_State@@PAXPAI@Z 100472ec     luaglue.obj
 0003:000002f0       __mep@?luaL_buffinit@@$$FYGXPAUlua_State@@PAUluaL_Buffer@@@Z 100472f0     luaglue.obj
 0003:000002f4       __mep@?libsize@?A0xc8d640f7@@$$FYGHPBUluaL_Reg@@@Z 100472f4     luaglue.obj
 0003:000002f8       __mep@?aux_upvalue@?A0xc8d640f7@@$$FYGPBDPAUlua_TValue@@HPAPAU2@@Z 100472f8     luaglue.obj
 0003:000002fc       __mep@?lua_setallocf@@$$FYGXPAUlua_State@@P6GPAXPAX1II@Z1@Z 100472fc     luaglue.obj
 0003:00000300       __mep@?lua_getallocf@@$$FYGP6GPAXPAX0II@ZPAUlua_State@@PAPAX@Z 10047300     luaglue.obj
 0003:00000304       __mep@?lua_status@@$$FYGHPAUlua_State@@@Z 10047304     luaglue.obj
 0003:00000308       __mep@?lua_pushthread@@$$FYGHPAUlua_State@@@Z 10047308     luaglue.obj
 0003:0000030c       __mep@?lua_pushlightuserdata@@$$FYGXPAUlua_State@@PAX@Z 1004730c     luaglue.obj
 0003:00000310       __mep@?lua_pushboolean@@$$FYGXPAUlua_State@@H@Z 10047310     luaglue.obj
 0003:00000314       __mep@?lua_pushinteger@@$$FYGXPAUlua_State@@H@Z 10047314     luaglue.obj
 0003:00000318       __mep@?lua_pushnumber@@$$FYGXPAUlua_State@@N@Z 10047318     luaglue.obj
 0003:0000031c       __mep@?lua_pushnil@@$$FYGXPAUlua_State@@@Z 1004731c     luaglue.obj
 0003:00000320       __mep@?lua_typename@@$$FYGPBDPAUlua_State@@H@Z 10047320     luaglue.obj
 0003:00000324       __mep@?lua_settop@@$$FYGXPAUlua_State@@H@Z 10047324     luaglue.obj
 0003:00000328       __mep@?lua_gettop@@$$FYGHPAUlua_State@@@Z 10047328     luaglue.obj
 0003:0000032c       __mep@?lua_atpanic@@$$FYGP6GHPAUlua_State@@@Z0P6GH0@Z@Z 1004732c     luaglue.obj
 0003:00000330       __mep@?lua_xmove@@$$FYGXPAUlua_State@@0H@Z 10047330     luaglue.obj
 0003:00000334       __mep@?luaA_pushobject@@$$FYGXPAUlua_State@@PBUlua_TValue@@@Z 10047334     luaglue.obj
 0003:00000338       __mep@?getcurrenv@?A0xc8d640f7@@$$FYGPAUTable@@PAUlua_State@@@Z 10047338     luaglue.obj
 0003:0000033c       __mep@?index2adr@?A0xc8d640f7@@$$FYGPAUlua_TValue@@PAUlua_State@@H@Z 1004733c     luaglue.obj
 0003:00000340       __mep@?strrchr@@$$FYAPADPADH@Z 10047340     luaglue.obj
 0003:00000344       __mep@?strchr@@$$FYAPADPADH@Z 10047344     luaglue.obj
 0003:00000348       __mep@?luaZ_lookahead@@$$FYGHPAUZio@@@Z 10047348     luaglue.obj
 0003:0000034c       __mep@?luaV_tonumber@@$$FYGPBUlua_TValue@@PBU1@PAU1@@Z 1004734c     luaglue.obj
 0003:00000350       __mep@?print_version@?A0xc8d640f7@@$$FYGXXZ 10047350     luaglue.obj
 0003:00000354       __mep@?lstop@?A0xc8d640f7@@$$FYGXPAUlua_State@@PAUlua_Debug@@@Z 10047354     luaglue.obj
 0003:00000358       __mep@?luaT_gettmbyobj@@$$FYGPBUlua_TValue@@PAUlua_State@@PBU1@W4TMS@@@Z 10047358     luaglue.obj
 0003:0000035c       __mep@?luaT_gettm@@$$FYGPBUlua_TValue@@PAUTable@@W4TMS@@PATTString@@@Z 1004735c     luaglue.obj
 0003:00000360       __mep@?luaH_getnum@@$$FYGPBUlua_TValue@@PAUTable@@H@Z 10047360     luaglue.obj
 0003:00000364       __mep@?countint@?A0xc8d640f7@@$$FYGHPBUlua_TValue@@PAH@Z 10047364     luaglue.obj
 0003:00000368       __mep@?mainposition@?A0xc8d640f7@@$$FYGPAUNode@@PBUTable@@PBUlua_TValue@@@Z 10047368     luaglue.obj
 0003:0000036c       __mep@?match_capture@?A0xc8d640f7@@$$FYGPBDPAUMatchState@@PBDH@Z 1004736c     luaglue.obj
 0003:00000370       __mep@?end_capture@?A0xc8d640f7@@$$FYGPBDPAUMatchState@@PBD1@Z 10047370     luaglue.obj
 0003:00000374       __mep@?matchbracketclass@?A0xc8d640f7@@$$FYGHHPBD0@Z 10047374     luaglue.obj
 0003:00000378       __mep@?luaS_resize@@$$FYGXPAUlua_State@@H@Z 10047378     luaglue.obj
 0003:0000037c       __mep@?os_clock@?A0xc8d640f7@@$$FYGHPAUlua_State@@@Z 1004737c     luaglue.obj
 0003:00000380       __mep@?os_pushresult@?A0xc8d640f7@@$$FYGHPAUlua_State@@HPBD@Z 10047380     luaglue.obj
 0003:00000384       __mep@?read_number@?A0xc8d640f7@@$$FYGHPAUlua_State@@PAU_iobuf@@@Z 10047384     luaglue.obj
 0003:00000388       __mep@?pushresult@?A0xc8d640f7@@$$FYGHPAUlua_State@@HPBD@Z 10047388     luaglue.obj
 0003:0000038c       __mep@?luaC_barrierf@@$$FYGXPAUlua_State@@PATGCObject@@1@Z 1004738c     luaglue.obj
 0003:00000390       __mep@?remarkupvals@?A0xc8d640f7@@$$FYGXPAUglobal_State@@@Z 10047390     luaglue.obj
 0003:00000394       __mep@?markmt@?A0xc8d640f7@@$$FYGXPAUglobal_State@@@Z 10047394     luaglue.obj
 0003:00000398       __mep@?cleartable@?A0xc8d640f7@@$$FYGXPATGCObject@@@Z 10047398     luaglue.obj
 0003:0000039c       __mep@?traverseclosure@?A0xc8d640f7@@$$FYGXPAUglobal_State@@PATClosure@@@Z 1004739c     luaglue.obj
 0003:000003a0       __mep@?traverseproto@?A0xc8d640f7@@$$FYGXPAUglobal_State@@PAUProto@@@Z 100473a0     luaglue.obj
 0003:000003a4       __mep@?traversetable@?A0xc8d640f7@@$$FYGHPAUglobal_State@@PAUTable@@@Z 100473a4     luaglue.obj
 0003:000003a8       __mep@?luaC_separateudata@@$$FYGIPAUlua_State@@H@Z 100473a8     luaglue.obj
 0003:000003ac       __mep@?marktmu@?A0xc8d640f7@@$$FYGXPAUglobal_State@@@Z 100473ac     luaglue.obj
 0003:000003b0       __mep@?luaF_freeupval@@$$FYGXPAUlua_State@@PAUUpVal@@@Z 100473b0     luaglue.obj
 0003:000003b4       __mep@?DumpHeader@?A0xc8d640f7@@$$FYGXPAUDumpState@@@Z 100473b4     luaglue.obj
 0003:000003b8       __mep@?DumpString@?A0xc8d640f7@@$$FYGXPBTTString@@PAUDumpState@@@Z 100473b8     luaglue.obj
 0003:000003bc       __mep@?DumpNumber@?A0xc8d640f7@@$$FYGXNPAUDumpState@@@Z 100473bc     luaglue.obj
 0003:000003c0       __mep@?DumpInt@?A0xc8d640f7@@$$FYGXHPAUDumpState@@@Z 100473c0     luaglue.obj
 0003:000003c4       __mep@?DumpChar@?A0xc8d640f7@@$$FYGXHPAUDumpState@@@Z 100473c4     luaglue.obj
 0003:000003c8       __mep@?symbexec@?A0xc8d640f7@@$$FYGIPBUProto@@HH@Z 100473c8     luaglue.obj
 0003:000003cc       __mep@?findlocal@?A0xc8d640f7@@$$FYGPBDPAUlua_State@@PAUCallInfo@@H@Z 100473cc     luaglue.obj
 0003:000003d0       __mep@?currentline@?A0xc8d640f7@@$$FYGHPAUlua_State@@PAUCallInfo@@@Z 100473d0     luaglue.obj
 0003:000003d4       __mep@?constfolding@?A0xc8d640f7@@$$FYGHW4OpCode@@PAUexpdesc@@1@Z 100473d4     luaglue.obj
 0003:000003d8       __mep@?invertjump@?A0xc8d640f7@@$$FYGXPAUFuncState@@PAUexpdesc@@@Z 100473d8     luaglue.obj
 0003:000003dc       __mep@?freeexp@?A0xc8d640f7@@$$FYGXPAUFuncState@@PAUexpdesc@@@Z 100473dc     luaglue.obj
 0003:000003e0       __mep@?patchtestreg@?A0xc8d640f7@@$$FYGHPAUFuncState@@HH@Z 100473e0     luaglue.obj
 0003:000003e4       __mep@?need_value@?A0xc8d640f7@@$$FYGHPAUFuncState@@H@Z 100473e4     luaglue.obj
 0003:000003e8       __mep@?luaB_corunning@?A0xc8d640f7@@$$FYGHPAUlua_State@@@Z 100473e8     luaglue.obj
 0003:000003ec       __mep@?luaB_yield@?A0xc8d640f7@@$$FYGHPAUlua_State@@@Z 100473ec     luaglue.obj
 0003:000003f0       __mep@?lua_setupvalue@@$$FYGPBDPAUlua_State@@HH@Z 100473f0     luaglue.obj
 0003:000003f4       __mep@?lua_getupvalue@@$$FYGPBDPAUlua_State@@HH@Z 100473f4     luaglue.obj
 0003:000003f8       __mep@?lua_setfenv@@$$FYGHPAUlua_State@@H@Z 100473f8     luaglue.obj
 0003:000003fc       __mep@?lua_setmetatable@@$$FYGHPAUlua_State@@H@Z 100473fc     luaglue.obj
 0003:00000400       __mep@?lua_rawset@@$$FYGXPAUlua_State@@H@Z 10047400     luaglue.obj
 0003:00000404       __mep@?lua_getfenv@@$$FYGXPAUlua_State@@H@Z 10047404     luaglue.obj
 0003:00000408       __mep@?lua_getmetatable@@$$FYGHPAUlua_State@@H@Z 10047408     luaglue.obj
 0003:0000040c       __mep@?lua_rawgeti@@$$FYGXPAUlua_State@@HH@Z 1004740c     luaglue.obj
 0003:00000410       __mep@?lua_rawget@@$$FYGXPAUlua_State@@H@Z 10047410     luaglue.obj
 0003:00000414       __mep@?lua_tothread@@$$FYGPAUlua_State@@PAU1@H@Z 10047414     luaglue.obj
 0003:00000418       __mep@?lua_touserdata@@$$FYGPAXPAUlua_State@@H@Z 10047418     luaglue.obj
 0003:0000041c       __mep@?lua_tocfunction@@$$FYGP6GHPAUlua_State@@@Z0H@Z 1004741c     luaglue.obj
 0003:00000420       __mep@?lua_toboolean@@$$FYGHPAUlua_State@@H@Z 10047420     luaglue.obj
 0003:00000424       __mep@?lua_tonumber@@$$FYGNPAUlua_State@@H@Z 10047424     luaglue.obj
 0003:00000428       __mep@?lua_rawequal@@$$FYGHPAUlua_State@@HH@Z 10047428     luaglue.obj
 0003:0000042c       __mep@?lua_isuserdata@@$$FYGHPAUlua_State@@H@Z 1004742c     luaglue.obj
 0003:00000430       __mep@?lua_isnumber@@$$FYGHPAUlua_State@@H@Z 10047430     luaglue.obj
 0003:00000434       __mep@?lua_iscfunction@@$$FYGHPAUlua_State@@H@Z 10047434     luaglue.obj
 0003:00000438       __mep@?lua_type@@$$FYGHPAUlua_State@@H@Z 10047438     luaglue.obj
 0003:0000043c       __mep@?lua_pushvalue@@$$FYGXPAUlua_State@@H@Z 1004743c     luaglue.obj
 0003:00000440       __mep@?lua_replace@@$$FYGXPAUlua_State@@H@Z 10047440     luaglue.obj
 0003:00000444       __mep@?lua_insert@@$$FYGXPAUlua_State@@H@Z 10047444     luaglue.obj
 0003:00000448       __mep@?lua_remove@@$$FYGXPAUlua_State@@H@Z 10047448     luaglue.obj
 0003:0000044c       __mep@?luaZ_read@@$$FYGIPAUZio@@PAXI@Z 1004744c     luaglue.obj
 0003:00000450       __mep@?get_compTM@?A0xc8d640f7@@$$FYGPBUlua_TValue@@PAUlua_State@@PAUTable@@1W4TMS@@@Z 10047450     luaglue.obj
 0003:00000454       __mep@?laction@?A0xc8d640f7@@$$FYGXH@Z 10047454     luaglue.obj
 0003:00000458       __mep@?unbound_search@?A0xc8d640f7@@$$FYGHPAUTable@@I@Z 10047458     luaglue.obj
 0003:0000045c       __mep@?numusehash@?A0xc8d640f7@@$$FYGHPBUTable@@PAH1@Z 1004745c     luaglue.obj
 0003:00000460       __mep@?findindex@?A0xc8d640f7@@$$FYGHPAUlua_State@@PAUTable@@PAUlua_TValue@@@Z 10047460     luaglue.obj
 0003:00000464       __mep@?singlematch@?A0xc8d640f7@@$$FYGHHPBD0@Z 10047464     luaglue.obj
 0003:00000468       __mep@?newlstr@?A0xc8d640f7@@$$FYGPATTString@@PAUlua_State@@PBDII@Z 10047468     luaglue.obj
 0003:0000046c       __mep@?getiofile@?A0xc8d640f7@@$$FYGPAU_iobuf@@PAUlua_State@@H@Z 1004746c     luaglue.obj
 0003:00000470       __mep@?luaC_linkupval@@$$FYGXPAUlua_State@@PAUUpVal@@@Z 10047470     luaglue.obj
 0003:00000474       __mep@?markroot@?A0xc8d640f7@@$$FYGXPAUlua_State@@@Z 10047474     luaglue.obj
 0003:00000478       __mep@?luaF_close@@$$FYGXPAUlua_State@@PAUlua_TValue@@@Z 10047478     luaglue.obj
 0003:0000047c       __mep@?DumpConstants@?A0xc8d640f7@@$$FYGXPBUProto@@PAUDumpState@@@Z 1004747c     luaglue.obj
 0003:00000480       __mep@?DumpVector@?A0xc8d640f7@@$$FYGXPBXHIPAUDumpState@@@Z 10047480     luaglue.obj
 0003:00000484       __mep@?addinfo@?A0xc8d640f7@@$$FYGXPAUlua_State@@PBD@Z 10047484     luaglue.obj
 0003:00000488       __mep@?getobjname@?A0xc8d640f7@@$$FYGPBDPAUlua_State@@PAUCallInfo@@HPAPBD@Z 10047488     luaglue.obj
 0003:0000048c       __mep@?luaG_checkcode@@$$FYGHPBUProto@@@Z 1004748c     luaglue.obj
 0003:00000490       __mep@?lua_setlocal@@$$FYGPBDPAUlua_State@@PBUlua_Debug@@H@Z 10047490     luaglue.obj
 0003:00000494       __mep@?lua_getlocal@@$$FYGPBDPAUlua_State@@PBUlua_Debug@@H@Z 10047494     luaglue.obj
 0003:00000498       __mep@?getthread@?A0xc8d640f7@@$$FYGPAUlua_State@@PAU2@PAH@Z 10047498     luaglue.obj
 0003:0000049c       __mep@?db_getfenv@?A0xc8d640f7@@$$FYGHPAUlua_State@@@Z 1004749c     luaglue.obj
 0003:000004a0       __mep@?db_getregistry@?A0xc8d640f7@@$$FYGHPAUlua_State@@@Z 100474a0     luaglue.obj
 0003:000004a4       __mep@?removevalues@?A0xc8d640f7@@$$FYGXPAUFuncState@@H@Z 100474a4     luaglue.obj
 0003:000004a8       __mep@?load_aux@?A0xc8d640f7@@$$FYGHPAUlua_State@@H@Z 100474a8     luaglue.obj
 0003:000004ac       __mep@?lua_topointer@@$$FYGPBXPAUlua_State@@H@Z 100474ac     luaglue.obj
 0003:000004b0       __mep@?lua_isstring@@$$FYGHPAUlua_State@@H@Z 100474b0     luaglue.obj
 0003:000004b4       __mep@?luaH_getn@@$$FYGHPAUTable@@@Z 100474b4     luaglue.obj
 0003:000004b8       __mep@?luaH_next@@$$FYGHPAUlua_State@@PAUTable@@PAUlua_TValue@@@Z 100474b8     luaglue.obj
 0003:000004bc       __mep@?min_expand@?A0xc8d640f7@@$$FYGPBDPAUMatchState@@PBD11@Z 100474bc     luaglue.obj
 0003:000004c0       __mep@?max_expand@?A0xc8d640f7@@$$FYGPBDPAUMatchState@@PBD11@Z 100474c0     luaglue.obj
 0003:000004c4       __mep@?luaS_newlstr@@$$FYGPATTString@@PAUlua_State@@PBDI@Z 100474c4     luaglue.obj
 0003:000004c8       __mep@?luaX_init@@$$FYGXPAUlua_State@@@Z 100474c8     luaglue.obj
 0003:000004cc       __mep@?io_flush@?A0xc8d640f7@@$$FYGHPAUlua_State@@@Z 100474cc     luaglue.obj
 0003:000004d0       __mep@?DumpDebug@?A0xc8d640f7@@$$FYGXPBUProto@@PAUDumpState@@@Z 100474d0     luaglue.obj
 0003:000004d4       __mep@?luaD_seterrorobj@@$$FYGXPAUlua_State@@HPAUlua_TValue@@@Z 100474d4     luaglue.obj
 0003:000004d8       __mep@?luaG_typeerror@@$$FYGXPAUlua_State@@PBUlua_TValue@@PBD@Z 100474d8     luaglue.obj
 0003:000004dc       __mep@?getfuncname@?A0xc8d640f7@@$$FYGPBDPAUlua_State@@PAUCallInfo@@PAPBD@Z 100474dc     luaglue.obj
 0003:000004e0       __mep@?auxgetinfo@?A0xc8d640f7@@$$FYGHPAUlua_State@@PBDPAUlua_Debug@@PATClosure@@PAUCallInfo@@@Z 100474e0     luaglue.obj
 0003:000004e4       __mep@?lua_next@@$$FYGHPAUlua_State@@H@Z 100474e4     luaglue.obj
 0003:000004e8       __mep@?luaV_tostring@@$$FYGHPAUlua_State@@PAUlua_TValue@@@Z 100474e8     luaglue.obj
 0003:000004ec       __mep@?luaT_init@@$$FYGXPAUlua_State@@@Z 100474ec     luaglue.obj
 0003:000004f0       __mep@?match@?A0xc8d640f7@@$$FYGPBDPAUMatchState@@PBD1@Z 100474f0     luaglue.obj
 0003:000004f4       __mep@?DumpFunction@?A0xc8d640f7@@$$FYGXPBUProto@@PBTTString@@PAUDumpState@@@Z 100474f4     luaglue.obj
 0003:000004f8       __mep@?luaD_pcall@@$$FYGHPAUlua_State@@P6GX0PAX@Z1HH@Z 100474f8     luaglue.obj
 0003:000004fc       __mep@?resetstack@?A0xc8d640f7@@$$FYGXPAUlua_State@@H@Z 100474fc     luaglue.obj
 0003:00000500       __mep@?luaG_aritherror@@$$FYGXPAUlua_State@@PBUlua_TValue@@1@Z 10047500     luaglue.obj
 0003:00000504       __mep@?luaG_concaterror@@$$FYGXPAUlua_State@@PAUlua_TValue@@1@Z 10047504     luaglue.obj
 0003:00000508       __mep@?lua_objlen@@$$FYGIPAUlua_State@@H@Z 10047508     luaglue.obj
 0003:0000050c       __mep@?luaU_dump@@$$FYGHPAUlua_State@@PBUProto@@P6GH0PBXIPAX@Z3H@Z 1004750c     luaglue.obj
 0003:00000510       __mep@?luaD_throw@@$$FYGXPAUlua_State@@H@Z 10047510     luaglue.obj
 0003:00000514       __mep@?lua_dump@@$$FYGHPAUlua_State@@P6GH0PBXIPAX@Z2@Z 10047514     luaglue.obj
 0003:00000518       __mep@?error@?A0xc8d640f7@@$$FYGXPAULoadState@@PBD@Z 10047518     luaglue.obj
 0003:0000051c       __mep@?luaM_realloc_@@$$FYGPAXPAUlua_State@@PAXII@Z 1004751c     luaglue.obj
 0003:00000520       __mep@?luaM_growaux_@@$$FYGPAXPAUlua_State@@PAXPAHIHPBD@Z 10047520     luaglue.obj
 0003:00000524       __mep@?luaX_setinput@@$$FYGXPAUlua_State@@PAULexState@@PAUZio@@PATTString@@@Z 10047524     luaglue.obj
 0003:00000528       __mep@?save@?A0xc8d640f7@@$$FYGXPAULexState@@H@Z 10047528     luaglue.obj
 0003:0000052c       __mep@?checkSizes@?A0xc8d640f7@@$$FYGXPAUlua_State@@@Z 1004752c     luaglue.obj
 0003:00000530       __mep@?luaF_freeclosure@@$$FYGXPAUlua_State@@PATClosure@@@Z 10047530     luaglue.obj
 0003:00000534       __mep@?luaF_freeproto@@$$FYGXPAUlua_State@@PAUProto@@@Z 10047534     luaglue.obj
 0003:00000538       __mep@?luaF_newproto@@$$FYGPAUProto@@PAUlua_State@@@Z 10047538     luaglue.obj
 0003:0000053c       __mep@?luaF_findupval@@$$FYGPAUUpVal@@PAUlua_State@@PAUlua_TValue@@@Z 1004753c     luaglue.obj
 0003:00000540       __mep@?luaF_newupval@@$$FYGPAUUpVal@@PAUlua_State@@@Z 10047540     luaglue.obj
 0003:00000544       __mep@?luaF_newLclosure@@$$FYGPATClosure@@PAUlua_State@@HPAUTable@@@Z 10047544     luaglue.obj
 0003:00000548       __mep@?luaF_newCclosure@@$$FYGPATClosure@@PAUlua_State@@HPAUTable@@@Z 10047548     luaglue.obj
 0003:0000054c       __mep@?luaD_call@@$$FYGXPAUlua_State@@PAUlua_TValue@@H@Z 1004754c     luaglue.obj
 0003:00000550       __mep@?growCI@?A0xc8d640f7@@$$FYGPAUCallInfo@@PAUlua_State@@@Z 10047550     luaglue.obj
 0003:00000554       __mep@?luaD_reallocstack@@$$FYGXPAUlua_State@@H@Z 10047554     luaglue.obj
 0003:00000558       __mep@?addk@?A0xc8d640f7@@$$FYGHPAUFuncState@@PAUlua_TValue@@1@Z 10047558     luaglue.obj
 0003:0000055c       __mep@?f_Ccall@?A0xc8d640f7@@$$FYGXPAUlua_State@@PAX@Z 1004755c     luaglue.obj
 0003:00000560       __mep@?f_call@?A0xc8d640f7@@$$FYGXPAUlua_State@@PAX@Z 10047560     luaglue.obj
 0003:00000564       __mep@?lua_call@@$$FYGXPAUlua_State@@HH@Z 10047564     luaglue.obj
 0003:00000568       __mep@?luaZ_openspace@@$$FYGPADPAUlua_State@@PAUMbuffer@@I@Z 10047568     luaglue.obj
 0003:0000056c       __mep@?LoadBlock@?A0xc8d640f7@@$$FYGXPAULoadState@@PAXI@Z 1004756c     luaglue.obj
 0003:00000570       __mep@?luaH_free@@$$FYGXPAUlua_State@@PAUTable@@@Z 10047570     luaglue.obj
 0003:00000574       __mep@?setnodevector@?A0xc8d640f7@@$$FYGXPAUlua_State@@PAUTable@@H@Z 10047574     luaglue.obj
 0003:00000578       __mep@?setarrayvector@?A0xc8d640f7@@$$FYGXPAUlua_State@@PAUTable@@H@Z 10047578     luaglue.obj
 0003:0000057c       __mep@?luaS_newudata@@$$FYGPATUdata@@PAUlua_State@@IPAUTable@@@Z 1004757c     luaglue.obj
 0003:00000580       __mep@?freestack@?A0xc8d640f7@@$$FYGXPAUlua_State@@0@Z 10047580     luaglue.obj
 0003:00000584       __mep@?stack_init@?A0xc8d640f7@@$$FYGXPAUlua_State@@0@Z 10047584     luaglue.obj
 0003:00000588       __mep@?registerlocalvar@?A0xc8d640f7@@$$FYGHPAULexState@@PATTString@@@Z 10047588     luaglue.obj
 0003:0000058c       __mep@?dooptions@?A0xc8d640f7@@$$FYGXPAUlua_State@@H@Z 1004758c     luaglue.obj
 0003:00000590       __mep@?skip_sep@?A0xc8d640f7@@$$FYGHPAULexState@@@Z 10047590     luaglue.obj
 0003:00000594       __mep@?check_next@?A0xc8d640f7@@$$FYGHPAULexState@@PBD@Z 10047594     luaglue.obj
 0003:00000598       __mep@?txtToken@?A0xc8d640f7@@$$FYGPBDPAULexState@@H@Z 10047598     luaglue.obj
 0003:0000059c       __mep@?GCTM@?A0xc8d640f7@@$$FYGXPAUlua_State@@@Z 1004759c     luaglue.obj
 0003:000005a0       __mep@?checkstacksizes@?A0xc8d640f7@@$$FYGXPAUlua_State@@PAUlua_TValue@@@Z 100475a0     luaglue.obj
 0003:000005a4       __mep@?luaD_growstack@@$$FYGXPAUlua_State@@H@Z 100475a4     luaglue.obj
 0003:000005a8       __mep@?luaG_errormsg@@$$FYGXPAUlua_State@@@Z 100475a8     luaglue.obj
 0003:000005ac       __mep@?nilK@?A0xc8d640f7@@$$FYGHPAUFuncState@@@Z 100475ac     luaglue.obj
 0003:000005b0       __mep@?boolK@?A0xc8d640f7@@$$FYGHPAUFuncState@@H@Z 100475b0     luaglue.obj
 0003:000005b4       __mep@?luaK_numberK@@$$FYGHPAUFuncState@@N@Z 100475b4     luaglue.obj
 0003:000005b8       __mep@?luaK_stringK@@$$FYGHPAUFuncState@@PATTString@@@Z 100475b8     luaglue.obj
 0003:000005bc       __mep@?lua_error@@$$FYGHPAUlua_State@@@Z 100475bc     luaglue.obj
 0003:000005c0       __mep@?lua_cpcall@@$$FYGHPAUlua_State@@P6GH0@ZPAX@Z 100475c0     luaglue.obj
 0003:000005c4       __mep@?lua_pcall@@$$FYGHPAUlua_State@@HHH@Z 100475c4     luaglue.obj
 0003:000005c8       __mep@?lua_checkstack@@$$FYGHPAUlua_State@@H@Z 100475c8     luaglue.obj
 0003:000005cc       __mep@?callTM@?A0xc8d640f7@@$$FYGXPAUlua_State@@PBUlua_TValue@@111@Z 100475cc     luaglue.obj
 0003:000005d0       __mep@?callTMres@?A0xc8d640f7@@$$FYGXPAUlua_State@@PAUlua_TValue@@PBU3@22@Z 100475d0     luaglue.obj
 0003:000005d4       __mep@?LoadHeader@?A0xc8d640f7@@$$FYGXPAULoadState@@@Z 100475d4     luaglue.obj
 0003:000005d8       __mep@?LoadStringW@?A0xc8d640f7@@$$FYGPATTString@@PAULoadState@@@Z 100475d8     luaglue.obj
 0003:000005dc       __mep@?LoadNumber@?A0xc8d640f7@@$$FYGNPAULoadState@@@Z 100475dc     luaglue.obj
 0003:000005e0       __mep@?LoadInt@?A0xc8d640f7@@$$FYGHPAULoadState@@@Z 100475e0     luaglue.obj
 0003:000005e4       __mep@?LoadChar@?A0xc8d640f7@@$$FYGHPAULoadState@@@Z 100475e4     luaglue.obj
 0003:000005e8       __mep@?luaH_new@@$$FYGPAUTable@@PAUlua_State@@HH@Z 100475e8     luaglue.obj
 0003:000005ec       __mep@?resize@?A0xc8d640f7@@$$FYGXPAUlua_State@@PAUTable@@HH@Z 100475ec     luaglue.obj
 0003:000005f0       __mep@?luaE_freethread@@$$FYGXPAUlua_State@@0@Z 100475f0     luaglue.obj
 0003:000005f4       __mep@?luaE_newthread@@$$FYGPAUlua_State@@PAU1@@Z 100475f4     luaglue.obj
 0003:000005f8       __mep@?f_luaopen@?A0xc8d640f7@@$$FYGXPAUlua_State@@PAX@Z 100475f8     luaglue.obj
 0003:000005fc       __mep@?open_func@?A0xc8d640f7@@$$FYGXPAULexState@@PAUFuncState@@@Z 100475fc     luaglue.obj
 0003:00000600       __mep@?codestring@?A0xc8d640f7@@$$FYGXPAULexState@@PAUexpdesc@@PATTString@@@Z 10047600     luaglue.obj
 0003:00000604       __mep@?pushstr@?A0xc8d640f7@@$$FYGXPAUlua_State@@PBD@Z 10047604     luaglue.obj
 0003:00000608       __mep@?luaX_lexerror@@$$FYGXPAULexState@@PBDH@Z 10047608     luaglue.obj
 0003:0000060c       __mep@?luaC_callGCTM@@$$FYGXPAUlua_State@@@Z 1004760c     luaglue.obj
 0003:00000610       __mep@?freeobj@?A0xc8d640f7@@$$FYGXPAUlua_State@@PATGCObject@@@Z 10047610     luaglue.obj
 0003:00000614       __mep@?traversestack@?A0xc8d640f7@@$$FYGXPAUglobal_State@@PAUlua_State@@@Z 10047614     luaglue.obj
 0003:00000618       __mep@?resume_error@?A0xc8d640f7@@$$FYGHPAUlua_State@@PBD@Z 10047618     luaglue.obj
 0003:0000061c       __mep@?tryfuncTM@?A0xc8d640f7@@$$FYGPAUlua_TValue@@PAUlua_State@@PAU2@@Z 1004761c     luaglue.obj
 0003:00000620       __mep@?luaD_callhook@@$$FYGXPAUlua_State@@HH@Z 10047620     luaglue.obj
 0003:00000624       __mep@?luaL_checkstack@@$$FYGXPAUlua_State@@HPBD@Z 10047624     luaglue.obj
 0003:00000628       __mep@?luaV_equalval@@$$FYGHPAUlua_State@@PBUlua_TValue@@1@Z 10047628     luaglue.obj
 0003:0000062c       __mep@?call_orderTM@?A0xc8d640f7@@$$FYGHPAUlua_State@@PBUlua_TValue@@1W4TMS@@@Z 1004762c     luaglue.obj
 0003:00000630       __mep@?call_binTM@?A0xc8d640f7@@$$FYGHPAUlua_State@@PBUlua_TValue@@1PAU3@W4TMS@@@Z 10047630     luaglue.obj
 0003:00000634       __mep@?luaV_settable@@$$FYGXPAUlua_State@@PBUlua_TValue@@PAU2@2@Z 10047634     luaglue.obj
 0003:00000638       __mep@?luaV_gettable@@$$FYGXPAUlua_State@@PBUlua_TValue@@PAU2@2@Z 10047638     luaglue.obj
 0003:0000063c       __mep@?traceexec@?A0xc8d640f7@@$$FYGXPAUlua_State@@PBI@Z 1004763c     luaglue.obj
 0003:00000640       __mep@?LoadDebug@?A0xc8d640f7@@$$FYGXPAULoadState@@PAUProto@@@Z 10047640     luaglue.obj
 0003:00000644       __mep@?LoadConstants@?A0xc8d640f7@@$$FYGXPAULoadState@@PAUProto@@@Z 10047644     luaglue.obj
 0003:00000648       __mep@?LoadCode@?A0xc8d640f7@@$$FYGXPAULoadState@@PAUProto@@@Z 10047648     luaglue.obj
 0003:0000064c       __mep@?rehash@?A0xc8d640f7@@$$FYGXPAUlua_State@@PAUTable@@PBUlua_TValue@@@Z 1004764c     luaglue.obj
 0003:00000650       __mep@?luaH_resizearray@@$$FYGXPAUlua_State@@PAUTable@@H@Z 10047650     luaglue.obj
 0003:00000654       __mep@?callallgcTM@?A0xc8d640f7@@$$FYGXPAUlua_State@@PAX@Z 10047654     luaglue.obj
 0003:00000658       __mep@?enterlevel@?A0xc8d640f7@@$$FYGXPAULexState@@@Z 10047658     luaglue.obj
 0003:0000065c       __mep@?errorlimit@?A0xc8d640f7@@$$FYGXPAUFuncState@@HPBD@Z 1004765c     luaglue.obj
 0003:00000660       __mep@?trydecpoint@?A0xc8d640f7@@$$FYGXPAULexState@@PATSemInfo@@@Z 10047660     luaglue.obj
 0003:00000664       __mep@?luaX_syntaxerror@@$$FYGXPAULexState@@PBD@Z 10047664     luaglue.obj
 0003:00000668       __mep@?sweeplist@?A0xc8d640f7@@$$FYGPAPATGCObject@@PAUlua_State@@PAPAT2@I@Z 10047668     luaglue.obj
 0003:0000066c       __mep@?propagatemark@?A0xc8d640f7@@$$FYGHPAUglobal_State@@@Z 1004766c     luaglue.obj
 0003:00000670       __mep@?callrethooks@?A0xc8d640f7@@$$FYGPAUlua_TValue@@PAUlua_State@@PAU2@@Z 10047670     luaglue.obj
 0003:00000674       __mep@?luaK_checkstack@@$$FYGXPAUFuncState@@H@Z 10047674     luaglue.obj
 0003:00000678       __mep@?fixjump@?A0xc8d640f7@@$$FYGXPAUFuncState@@HH@Z 10047678     luaglue.obj
 0003:0000067c       __mep@?lua_setfield@@$$FYGXPAUlua_State@@HPBD@Z 1004767c     luaglue.obj
 0003:00000680       __mep@?lua_settable@@$$FYGXPAUlua_State@@H@Z 10047680     luaglue.obj
 0003:00000684       __mep@?lua_getfield@@$$FYGXPAUlua_State@@HPBD@Z 10047684     luaglue.obj
 0003:00000688       __mep@?lua_gettable@@$$FYGXPAUlua_State@@H@Z 10047688     luaglue.obj
 0003:0000068c       __mep@?lua_equal@@$$FYGHPAUlua_State@@HH@Z 1004768c     luaglue.obj
 0003:00000690       __mep@?Arith@?A0xc8d640f7@@$$FYGXPAUlua_State@@PAUlua_TValue@@PBU3@2W4TMS@@@Z 10047690     luaglue.obj
 0003:00000694       __mep@?luaV_concat@@$$FYGXPAUlua_State@@HH@Z 10047694     luaglue.obj
 0003:00000698       __mep@?lessequal@?A0xc8d640f7@@$$FYGHPAUlua_State@@PBUlua_TValue@@1@Z 10047698     luaglue.obj
 0003:0000069c       __mep@?luaV_lessthan@@$$FYGHPAUlua_State@@PBUlua_TValue@@1@Z 1004769c     luaglue.obj
 0003:000006a0       __mep@?LoadFunction@?A0xc8d640f7@@$$FYGPAUProto@@PAULoadState@@PATTString@@@Z 100476a0     luaglue.obj
 0003:000006a4       __mep@?traceback@?A0xc8d640f7@@$$FYGHPAUlua_State@@@Z 100476a4     luaglue.obj
 0003:000006a8       __mep@?newkey@?A0xc8d640f7@@$$FYGPAUlua_TValue@@PAUlua_State@@PAUTable@@PBU2@@Z 100476a8     luaglue.obj
 0003:000006ac       __mep@?listfield@?A0xc8d640f7@@$$FYGXPAULexState@@PAUConsControl@@@Z 100476ac     luaglue.obj
 0003:000006b0       __mep@?indexupvalue@?A0xc8d640f7@@$$FYGHPAUFuncState@@PATTString@@PAUexpdesc@@@Z 100476b0     luaglue.obj
 0003:000006b4       __mep@?new_localvar@?A0xc8d640f7@@$$FYGXPAULexState@@PATTString@@H@Z 100476b4     luaglue.obj
 0003:000006b8       __mep@?error_expected@?A0xc8d640f7@@$$FYGXPAULexState@@H@Z 100476b8     luaglue.obj
 0003:000006bc       __mep@?getfield@?A0xc8d640f7@@$$FYGHPAUlua_State@@PBDH@Z 100476bc     luaglue.obj
 0003:000006c0       __mep@?getboolfield@?A0xc8d640f7@@$$FYGHPAUlua_State@@PBD@Z 100476c0     luaglue.obj
 0003:000006c4       __mep@?setboolfield@?A0xc8d640f7@@$$FYGXPAUlua_State@@PBDH@Z 100476c4     luaglue.obj
 0003:000006c8       __mep@?setfield@?A0xc8d640f7@@$$FYGXPAUlua_State@@PBDH@Z 100476c8     luaglue.obj
 0003:000006cc       __mep@?read_numeral@?A0xc8d640f7@@$$FYGXPAULexState@@PATSemInfo@@@Z 100476cc     luaglue.obj
 0003:000006d0       __mep@?inclinenumber@?A0xc8d640f7@@$$FYGXPAULexState@@@Z 100476d0     luaglue.obj
 0003:000006d4       __mep@?aux_close@?A0xc8d640f7@@$$FYGHPAUlua_State@@@Z 100476d4     luaglue.obj
 0003:000006d8       __mep@?luaC_freeall@@$$FYGXPAUlua_State@@@Z 100476d8     luaglue.obj
 0003:000006dc       __mep@?propagateall@?A0xc8d640f7@@$$FYGIPAUglobal_State@@@Z 100476dc     luaglue.obj
 0003:000006e0       __mep@?luaD_poscall@@$$FYGHPAUlua_State@@PAUlua_TValue@@@Z 100476e0     luaglue.obj
 0003:000006e4       __mep@?treatstackoption@?A0xc8d640f7@@$$FYGXPAUlua_State@@0PBD@Z 100476e4     luaglue.obj
 0003:000006e8       __mep@?settabsi@?A0xc8d640f7@@$$FYGXPAUlua_State@@PBDH@Z 100476e8     luaglue.obj
 0003:000006ec       __mep@?luaK_reserveregs@@$$FYGXPAUFuncState@@H@Z 100476ec     luaglue.obj
 0003:000006f0       __mep@?luaK_concat@@$$FYGXPAUFuncState@@PAHH@Z 100476f0     luaglue.obj
 0003:000006f4       __mep@?luaK_patchtohere@@$$FYGXPAUFuncState@@H@Z 100476f4     luaglue.obj
 0003:000006f8       __mep@?patchlistaux@?A0xc8d640f7@@$$FYGXPAUFuncState@@HHHH@Z 100476f8     luaglue.obj
 0003:000006fc       __mep@?lua_lessthan@@$$FYGHPAUlua_State@@HH@Z 100476fc     luaglue.obj
 0003:00000700       __mep@?luaU_undump@@$$FYGPAUProto@@PAUlua_State@@PAUZio@@PAUMbuffer@@PBD@Z 10047700     luaglue.obj
 0003:00000704       __mep@?sort_comp@?A0xc8d640f7@@$$FYGHPAUlua_State@@HH@Z 10047704     luaglue.obj
 0003:00000708       __mep@?luaH_setstr@@$$FYGPAUlua_TValue@@PAUlua_State@@PAUTable@@PATTString@@@Z 10047708     luaglue.obj
 0003:0000070c       __mep@?luaH_setnum@@$$FYGPAUlua_TValue@@PAUlua_State@@PAUTable@@H@Z 1004770c     luaglue.obj
 0003:00000710       __mep@?close_state@?A0xc8d640f7@@$$FYGXPAUlua_State@@@Z 10047710     luaglue.obj
 0003:00000714       __mep@?singlevaraux@?A0xc8d640f7@@$$FYGHPAUFuncState@@PATTString@@PAUexpdesc@@H@Z 10047714     luaglue.obj
 0003:00000718       __mep@?check@?A0xc8d640f7@@$$FYGXPAULexState@@H@Z 10047718     luaglue.obj
 0003:0000071c       __mep@?luaX_newstring@@$$FYGPATTString@@PAULexState@@PBDI@Z 1004771c     luaglue.obj
 0003:00000720       __mep@?atomic@?A0xc8d640f7@@$$FYGXPAUlua_State@@@Z 10047720     luaglue.obj
 0003:00000724       __mep@?collectvalidlines@?A0xc8d640f7@@$$FYGXPAUlua_State@@PATClosure@@@Z 10047724     luaglue.obj
 0003:00000728       __mep@?luaK_setreturns@@$$FYGXPAUFuncState@@PAUexpdesc@@H@Z 10047728     luaglue.obj
 0003:0000072c       __mep@?luaK_patchlist@@$$FYGXPAUFuncState@@HH@Z 1004772c     luaglue.obj
 0003:00000730       __mep@?dischargejpc@?A0xc8d640f7@@$$FYGXPAUFuncState@@@Z 10047730     luaglue.obj
 0003:00000734       __mep@?lua_rawseti@@$$FYGXPAUlua_State@@HH@Z 10047734     luaglue.obj
 0003:00000738       __mep@?set2@?A0xc8d640f7@@$$FYGXPAUlua_State@@HH@Z 10047738     luaglue.obj
 0003:0000073c       __mep@?lua_close@@$$FYGXPAUlua_State@@@Z 1004773c     luaglue.obj
 0003:00000740       __mep@?lua_newstate@@$$FYGPAUlua_State@@P6GPAXPAX0II@Z0@Z 10047740     luaglue.obj
 0003:00000744       __mep@?anchor_token@?A0xc8d640f7@@$$FYGXPAULexState@@@Z 10047744     luaglue.obj
 0003:00000748       __mep@?read_string@?A0xc8d640f7@@$$FYGXPAULexState@@HPATSemInfo@@@Z 10047748     luaglue.obj
 0003:0000074c       __mep@?read_long_string@?A0xc8d640f7@@$$FYGXPAULexState@@PATSemInfo@@H@Z 1004774c     luaglue.obj
 0003:00000750       __mep@?singlestep@?A0xc8d640f7@@$$FYGHPAUlua_State@@@Z 10047750     luaglue.obj
 0003:00000754       __mep@?lua_getinfo@@$$FYGHPAUlua_State@@PBDPAUlua_Debug@@@Z 10047754     luaglue.obj
 0003:00000758       __mep@?luaK_code@?A0xc8d640f7@@$$FYGHPAUFuncState@@IH@Z 10047758     luaglue.obj
 0003:0000075c       __mep@?luaL_unref@@$$FYGXPAUlua_State@@HH@Z 1004775c     luaglue.obj
 0003:00000760       __mep@?luaL_ref@@$$FYGHPAUlua_State@@H@Z 10047760     luaglue.obj
 0003:00000764       __mep@?luaL_where@@$$FYGXPAUlua_State@@H@Z 10047764     luaglue.obj
 0003:00000768       __mep@?luaL_argerror@@$$FYGHPAUlua_State@@HPBD@Z 10047768     luaglue.obj
 0003:0000076c       __mep@?auxsort@?A0xc8d640f7@@$$FYGXPAUlua_State@@HH@Z 1004776c     luaglue.obj
 0003:00000770       __mep@?setfenv@?A0xc8d640f7@@$$FYGXPAUlua_State@@@Z 10047770     luaglue.obj
 0003:00000774       __mep@?llex@?A0xc8d640f7@@$$FYGHPAULexState@@PATSemInfo@@@Z 10047774     luaglue.obj
 0003:00000778       __mep@?luaC_fullgc@@$$FYGXPAUlua_State@@@Z 10047778     luaglue.obj
 0003:0000077c       __mep@?luaC_step@@$$FYGXPAUlua_State@@@Z 1004777c     luaglue.obj
 0003:00000780       __mep@?adjust_varargs@?A0xc8d640f7@@$$FYGPAUlua_TValue@@PAUlua_State@@PAUProto@@H@Z 10047780     luaglue.obj
 0003:00000784       __mep@?db_setmetatable@?A0xc8d640f7@@$$FYGHPAUlua_State@@@Z 10047784     luaglue.obj
 0003:00000788       __mep@?luaK_codeABx@@$$FYGHPAUFuncState@@W4OpCode@@HI@Z 10047788     luaglue.obj
 0003:0000078c       __mep@?luaK_codeABC@@$$FYGHPAUFuncState@@W4OpCode@@HHH@Z 1004778c     luaglue.obj
 0003:00000790       __mep@?code_label@?A0xc8d640f7@@$$FYGHPAUFuncState@@HHH@Z 10047790     luaglue.obj
 0003:00000794       __mep@?luaK_dischargevars@@$$FYGXPAUFuncState@@PAUexpdesc@@@Z 10047794     luaglue.obj
 0003:00000798       __mep@?luaK_ret@@$$FYGXPAUFuncState@@HH@Z 10047798     luaglue.obj
 0003:0000079c       __mep@?luaK_jump@@$$FYGHPAUFuncState@@@Z 1004779c     luaglue.obj
 0003:000007a0       __mep@?luaK_nil@@$$FYGXPAUFuncState@@HH@Z 100477a0     luaglue.obj
 0003:000007a4       __mep@?luaL_checkany@@$$FYGXPAUlua_State@@H@Z 100477a4     luaglue.obj
 0003:000007a8       __mep@?luaL_typerror@@$$FYGHPAUlua_State@@HPBD@Z 100477a8     luaglue.obj
 0003:000007ac       __mep@?lua_newuserdata@@$$FYGPAXPAUlua_State@@I@Z 100477ac     luaglue.obj
 0003:000007b0       __mep@?lua_concat@@$$FYGXPAUlua_State@@H@Z 100477b0     luaglue.obj
 0003:000007b4       __mep@?lua_gc@@$$FYGHPAUlua_State@@HH@Z 100477b4     luaglue.obj
 0003:000007b8       __mep@?lua_createtable@@$$FYGXPAUlua_State@@HH@Z 100477b8     luaglue.obj
 0003:000007bc       __mep@?lua_pushcclosure@@$$FYGXPAUlua_State@@P6GH0@ZH@Z 100477bc     luaglue.obj
 0003:000007c0       __mep@?lua_pushvfstring@@$$FYGPBDPAUlua_State@@PBDPAD@Z 100477c0     luaglue.obj
 0003:000007c4       __mep@?lua_pushlstring@@$$FYGXPAUlua_State@@PBDI@Z 100477c4     luaglue.obj
 0003:000007c8       __mep@?lua_tolstring@@$$FYGPBDPAUlua_State@@HPAI@Z 100477c8     luaglue.obj
 0003:000007cc       __mep@?lua_newthread@@$$FYGPAUlua_State@@PAU1@@Z 100477cc     luaglue.obj
 0003:000007d0       __mep@?incomplete@?A0xc8d640f7@@$$FYGHPAUlua_State@@H@Z 100477d0     luaglue.obj
 0003:000007d4       __mep@?get_prompt@?A0xc8d640f7@@$$FYGPBDPAUlua_State@@H@Z 100477d4     luaglue.obj
 0003:000007d8       __mep@?docall@?A0xc8d640f7@@$$FYGHPAUlua_State@@HH@Z 100477d8     luaglue.obj
 0003:000007dc       __mep@?report@?A0xc8d640f7@@$$FYGHPAUlua_State@@H@Z 100477dc     luaglue.obj
 0003:000007e0       __mep@?createmetatable@?A0xc8d640f7@@$$FYGXPAUlua_State@@@Z 100477e0     luaglue.obj
 0003:000007e4       __mep@?push_onecapture@?A0xc8d640f7@@$$FYGXPAUMatchState@@HPBD1@Z 100477e4     luaglue.obj
 0003:000007e8       __mep@?breakstat@?A0xc8d640f7@@$$FYGXPAULexState@@@Z 100477e8     luaglue.obj
 0003:000007ec       __mep@?check_conflict@?A0xc8d640f7@@$$FYGXPAULexState@@PAULHS_assign@@PAUexpdesc@@@Z 100477ec     luaglue.obj
 0003:000007f0       __mep@?close_func@?A0xc8d640f7@@$$FYGXPAULexState@@@Z 100477f0     luaglue.obj
 0003:000007f4       __mep@?pushclosure@?A0xc8d640f7@@$$FYGXPAULexState@@PAUFuncState@@PAUexpdesc@@@Z 100477f4     luaglue.obj
 0003:000007f8       __mep@?leaveblock@?A0xc8d640f7@@$$FYGXPAUFuncState@@@Z 100477f8     luaglue.obj
 0003:000007fc       __mep@?loaderror@?A0xc8d640f7@@$$FYGXPAUlua_State@@PBD@Z 100477fc     luaglue.obj
 0003:00000800       __mep@?pushnexttemplate@?A0xc8d640f7@@$$FYGPBDPAUlua_State@@PBD@Z 10047800     luaglue.obj
 0003:00000804       __mep@?ll_register@?A0xc8d640f7@@$$FYGPAPAXPAUlua_State@@PBD@Z 10047804     luaglue.obj
 0003:00000808       __mep@?luaX_lookahead@@$$FYGXPAULexState@@@Z 10047808     luaglue.obj
 0003:0000080c       __mep@?luaX_next@@$$FYGXPAULexState@@@Z 1004780c     luaglue.obj
 0003:00000810       __mep@?test_eof@?A0xc8d640f7@@$$FYGHPAUlua_State@@PAU_iobuf@@@Z 10047810     luaglue.obj
 0003:00000814       __mep@?newfile@?A0xc8d640f7@@$$FYGPAPAU_iobuf@@PAUlua_State@@@Z 10047814     luaglue.obj
 0003:00000818       __mep@?io_type@?A0xc8d640f7@@$$FYGHPAUlua_State@@@Z 10047818     luaglue.obj
 0003:0000081c       __mep@?fileerror@?A0xc8d640f7@@$$FYGXPAUlua_State@@HPBD@Z 1004781c     luaglue.obj
 0003:00000820       __mep@?luaD_precall@@$$FYGHPAUlua_State@@PAUlua_TValue@@H@Z 10047820     luaglue.obj
 0003:00000824       __mep@?db_errorfb@?A0xc8d640f7@@$$FYGHPAUlua_State@@@Z 10047824     luaglue.obj
 0003:00000828       __mep@?gethooktable@?A0xc8d640f7@@$$FYGXPAUlua_State@@@Z 10047828     luaglue.obj
 0003:0000082c       __mep@?db_getmetatable@?A0xc8d640f7@@$$FYGHPAUlua_State@@@Z 1004782c     luaglue.obj
 0003:00000830       __mep@?luaK_setlist@@$$FYGXPAUFuncState@@HHH@Z 10047830     luaglue.obj
 0003:00000834       __mep@?discharge2reg@?A0xc8d640f7@@$$FYGXPAUFuncState@@PAUexpdesc@@H@Z 10047834     luaglue.obj
 0003:00000838       __mep@?condjump@?A0xc8d640f7@@$$FYGHPAUFuncState@@W4OpCode@@HHH@Z 10047838     luaglue.obj
 0003:0000083c       __mep@?auxopen@?A0xc8d640f7@@$$FYGXPAUlua_State@@PBDP6GH0@Z2@Z 1004783c     luaglue.obj
 0003:00000840       __mep@?luaB_costatus@?A0xc8d640f7@@$$FYGHPAUlua_State@@@Z 10047840     luaglue.obj
 0003:00000844       __mep@?luaB_cocreate@?A0xc8d640f7@@$$FYGHPAUlua_State@@@Z 10047844     luaglue.obj
 0003:00000848       __mep@?luaB_newproxy@?A0xc8d640f7@@$$FYGHPAUlua_State@@@Z 10047848     luaglue.obj
 0003:0000084c       __mep@?luaB_xpcall@?A0xc8d640f7@@$$FYGHPAUlua_State@@@Z 1004784c     luaglue.obj
 0003:00000850       __mep@?luaB_pcall@?A0xc8d640f7@@$$FYGHPAUlua_State@@@Z 10047850     luaglue.obj
 0003:00000854       __mep@?generic_reader@?A0xc8d640f7@@$$FYGPBDPAUlua_State@@PAXPAI@Z 10047854     luaglue.obj
 0003:00000858       __mep@?luaB_gcinfo@?A0xc8d640f7@@$$FYGHPAUlua_State@@@Z 10047858     luaglue.obj
 0003:0000085c       __mep@?luaB_rawequal@?A0xc8d640f7@@$$FYGHPAUlua_State@@@Z 1004785c     luaglue.obj
 0003:00000860       __mep@?luaB_print@?A0xc8d640f7@@$$FYGHPAUlua_State@@@Z 10047860     luaglue.obj
 0003:00000864       __mep@?panic@?A0xc8d640f7@@$$FYGHPAUlua_State@@@Z 10047864     luaglue.obj
 0003:00000868       __mep@?errfile@?A0xc8d640f7@@$$FYGHPAUlua_State@@PBDH@Z 10047868     luaglue.obj
 0003:0000086c       __mep@?adjuststack@?A0xc8d640f7@@$$FYGXPAUluaL_Buffer@@@Z 1004786c     luaglue.obj
 0003:00000870       __mep@?emptybuffer@?A0xc8d640f7@@$$FYGHPAUluaL_Buffer@@@Z 10047870     luaglue.obj
 0003:00000874       __mep@?luaL_findtable@@$$FYGPBDPAUlua_State@@HPBDH@Z 10047874     luaglue.obj
 0003:00000878       __mep@?luaL_openlib@@$$FYGXPAUlua_State@@PBDPBUluaL_Reg@@H@Z 10047878     luaglue.obj
 0003:0000087c       __mep@?luaL_register@@$$FYGXPAUlua_State@@PBDPBUluaL_Reg@@@Z 1004787c     luaglue.obj
 0003:00000880       __mep@?luaL_checkudata@@$$FYGPAXPAUlua_State@@HPBD@Z 10047880     luaglue.obj
 0003:00000884       __mep@?luaL_newmetatable@@$$FYGHPAUlua_State@@PBD@Z 10047884     luaglue.obj
 0003:00000888       __mep@?tag_error@?A0xc8d640f7@@$$FYGXPAUlua_State@@HH@Z 10047888     luaglue.obj
 0003:0000088c       __mep@?lua_pushstring@@$$FYGXPAUlua_State@@PBD@Z 1004788c     luaglue.obj
 0003:00000890       __mep@?luaV_execute@@$$FYGXPAUlua_State@@H@Z 10047890     luaglue.obj
 0003:00000894       __mep@?pushline@?A0xc8d640f7@@$$FYGHPAUlua_State@@H@Z 10047894     luaglue.obj
 0003:00000898       __mep@?dolibrary@?A0xc8d640f7@@$$FYGHPAUlua_State@@PBD@Z 10047898     luaglue.obj
 0003:0000089c       __mep@?getargs@?A0xc8d640f7@@$$FYGHPAUlua_State@@PAPADH@Z 1004789c     luaglue.obj
 0003:000008a0       __mep@?luaopen_table@@$$FYGHPAUlua_State@@@Z 100478a0     luaglue.obj
 0003:000008a4       __mep@?luaopen_string@@$$FYGHPAUlua_State@@@Z 100478a4     luaglue.obj
 0003:000008a8       __mep@?push_captures@?A0xc8d640f7@@$$FYGHPAUMatchState@@PBD1@Z 100478a8     luaglue.obj
 0003:000008ac       __mep@?block@?A0xc8d640f7@@$$FYGXPAULexState@@@Z 100478ac     luaglue.obj
 0003:000008b0       __mep@?str_checkname@?A0xc8d640f7@@$$FYGPATTString@@PAULexState@@@Z 100478b0     luaglue.obj
 0003:000008b4       __mep@?checknext@?A0xc8d640f7@@$$FYGXPAULexState@@H@Z 100478b4     luaglue.obj
 0003:000008b8       __mep@?testnext@?A0xc8d640f7@@$$FYGHPAULexState@@H@Z 100478b8     luaglue.obj
 0003:000008bc       __mep@?luaopen_os@@$$FYGHPAUlua_State@@@Z 100478bc     luaglue.obj
 0003:000008c0       __mep@?os_tmpname@?A0xc8d640f7@@$$FYGHPAUlua_State@@@Z 100478c0     luaglue.obj
 0003:000008c4       __mep@?modinit@?A0xc8d640f7@@$$FYGXPAUlua_State@@PBD@Z 100478c4     luaglue.obj
 0003:000008c8       __mep@?gctm@?A0xc8d640f7@@$$FYGHPAUlua_State@@@Z 100478c8     luaglue.obj
 0003:000008cc       __mep@?pusherror@?A0xc8d640f7@@$$FYGXPAUlua_State@@@Z 100478cc     luaglue.obj
 0003:000008d0       __mep@?luaopen_math@@$$FYGHPAUlua_State@@@Z 100478d0     luaglue.obj
 0003:000008d4       __mep@?createstdfile@?A0xc8d640f7@@$$FYGXPAUlua_State@@PAU_iobuf@@HPBD@Z 100478d4     luaglue.obj
 0003:000008d8       __mep@?createmeta@?A0xc8d640f7@@$$FYGXPAUlua_State@@@Z 100478d8     luaglue.obj
 0003:000008dc       __mep@?io_tmpfile@?A0xc8d640f7@@$$FYGHPAUlua_State@@@Z 100478dc     luaglue.obj
 0003:000008e0       __mep@?io_tostring@?A0xc8d640f7@@$$FYGHPAUlua_State@@@Z 100478e0     luaglue.obj
 0003:000008e4       __mep@?io_gc@?A0xc8d640f7@@$$FYGHPAUlua_State@@@Z 100478e4     luaglue.obj
 0003:000008e8       __mep@?io_fclose@?A0xc8d640f7@@$$FYGHPAUlua_State@@@Z 100478e8     luaglue.obj
 0003:000008ec       __mep@?io_pclose@?A0xc8d640f7@@$$FYGHPAUlua_State@@@Z 100478ec     luaglue.obj
 0003:000008f0       __mep@?tofile@?A0xc8d640f7@@$$FYGPAU_iobuf@@PAUlua_State@@@Z 100478f0     luaglue.obj
 0003:000008f4       __mep@?luaL_openlibs@@$$FYGXPAUlua_State@@@Z 100478f4     luaglue.obj
 0003:000008f8       __mep@?resume@?A0xc8d640f7@@$$FYGXPAUlua_State@@PAX@Z 100478f8     luaglue.obj
 0003:000008fc       __mep@?luaopen_debug@@$$FYGHPAUlua_State@@@Z 100478fc     luaglue.obj
 0003:00000900       __mep@?hookf@?A0xc8d640f7@@$$FYGXPAUlua_State@@PAUlua_Debug@@@Z 10047900     luaglue.obj
 0003:00000904       __mep@?settabss@?A0xc8d640f7@@$$FYGXPAUlua_State@@PBD1@Z 10047904     luaglue.obj
 0003:00000908       __mep@?exp2reg@?A0xc8d640f7@@$$FYGXPAUFuncState@@PAUexpdesc@@H@Z 10047908     luaglue.obj
 0003:0000090c       __mep@?discharge2anyreg@?A0xc8d640f7@@$$FYGXPAUFuncState@@PAUexpdesc@@@Z 1004790c     luaglue.obj
 0003:00000910       __mep@?luaB_type@?A0xc8d640f7@@$$FYGHPAUlua_State@@@Z 10047910     luaglue.obj
 0003:00000914       __mep@?luaL_newstate@@$$FYGPAUlua_State@@XZ 10047914     luaglue.obj
 0003:00000918       __mep@?luaL_addvalue@@$$FYGXPAUluaL_Buffer@@@Z 10047918     luaglue.obj
 0003:0000091c       __mep@?luaL_pushresult@@$$FYGXPAUluaL_Buffer@@@Z 1004791c     luaglue.obj
 0003:00000920       __mep@?luaL_prepbuffer@@$$FYGPADPAUluaL_Buffer@@@Z 10047920     luaglue.obj
 0003:00000924       __mep@?luaL_getmetafield@@$$FYGHPAUlua_State@@HPBD@Z 10047924     luaglue.obj
 0003:00000928       __mep@?luaL_checkinteger@@$$FYGHPAUlua_State@@H@Z 10047928     luaglue.obj
 0003:0000092c       __mep@?luaL_checknumber@@$$FYGNPAUlua_State@@H@Z 1004792c     luaglue.obj
 0003:00000930       __mep@?luaL_checklstring@@$$FYGPBDPAUlua_State@@HPAI@Z 10047930     luaglue.obj
 0003:00000934       __mep@?luaL_checktype@@$$FYGXPAUlua_State@@HH@Z 10047934     luaglue.obj
 0003:00000938       __mep@?sort@?A0xc8d640f7@@$$FYGHPAUlua_State@@@Z 10047938     luaglue.obj
 0003:0000093c       __mep@?tinsert@?A0xc8d640f7@@$$FYGHPAUlua_State@@@Z 1004793c     luaglue.obj
 0003:00000940       __mep@?setn@?A0xc8d640f7@@$$FYGHPAUlua_State@@@Z 10047940     luaglue.obj
 0003:00000944       __mep@?getn@?A0xc8d640f7@@$$FYGHPAUlua_State@@@Z 10047944     luaglue.obj
 0003:00000948       __mep@?maxn@?A0xc8d640f7@@$$FYGHPAUlua_State@@@Z 10047948     luaglue.obj
 0003:0000094c       __mep@?foreach@?A0xc8d640f7@@$$FYGHPAUlua_State@@@Z 1004794c     luaglue.obj
 0003:00000950       __mep@?foreachi@?A0xc8d640f7@@$$FYGHPAUlua_State@@@Z 10047950     luaglue.obj
 0003:00000954       __mep@?gmatch_aux@?A0xc8d640f7@@$$FYGHPAUlua_State@@@Z 10047954     luaglue.obj
 0003:00000958       __mep@?str_char@?A0xc8d640f7@@$$FYGHPAUlua_State@@@Z 10047958     luaglue.obj
 0003:0000095c       __mep@?str_upper@?A0xc8d640f7@@$$FYGHPAUlua_State@@@Z 1004795c     luaglue.obj
 0003:00000960       __mep@?str_lower@?A0xc8d640f7@@$$FYGHPAUlua_State@@@Z 10047960     luaglue.obj
 0003:00000964       __mep@?str_reverse@?A0xc8d640f7@@$$FYGHPAUlua_State@@@Z 10047964     luaglue.obj
 0003:00000968       __mep@?str_len@?A0xc8d640f7@@$$FYGHPAUlua_State@@@Z 10047968     luaglue.obj
 0003:0000096c       __mep@?forbody@?A0xc8d640f7@@$$FYGXPAULexState@@HHHH@Z 1004796c     luaglue.obj
 0003:00000970       __mep@?parlist@?A0xc8d640f7@@$$FYGXPAULexState@@@Z 10047970     luaglue.obj
 0003:00000974       __mep@?singlevar@?A0xc8d640f7@@$$FYGXPAULexState@@PAUexpdesc@@@Z 10047974     luaglue.obj
 0003:00000978       __mep@?checkname@?A0xc8d640f7@@$$FYGXPAULexState@@PAUexpdesc@@@Z 10047978     luaglue.obj
 0003:0000097c       __mep@?check_match@?A0xc8d640f7@@$$FYGXPAULexState@@HHH@Z 1004797c     luaglue.obj
 0003:00000980       __mep@?os_time@?A0xc8d640f7@@$$FYGHPAUlua_State@@@Z 10047980     luaglue.obj
 0003:00000984       __mep@?os_getenv@?A0xc8d640f7@@$$FYGHPAUlua_State@@@Z 10047984     luaglue.obj
 0003:00000988       __mep@?os_rename@?A0xc8d640f7@@$$FYGHPAUlua_State@@@Z 10047988     luaglue.obj
 0003:0000098c       __mep@?os_remove@?A0xc8d640f7@@$$FYGHPAUlua_State@@@Z 1004798c     luaglue.obj
 0003:00000990       __mep@?ll_seeall@?A0xc8d640f7@@$$FYGHPAUlua_State@@@Z 10047990     luaglue.obj
 0003:00000994       __mep@?ll_module@?A0xc8d640f7@@$$FYGHPAUlua_State@@@Z 10047994     luaglue.obj
 0003:00000998       __mep@?ll_require@?A0xc8d640f7@@$$FYGHPAUlua_State@@@Z 10047998     luaglue.obj
 0003:0000099c       __mep@?loader_preload@?A0xc8d640f7@@$$FYGHPAUlua_State@@@Z 1004799c     luaglue.obj
 0003:000009a0       __mep@?ll_sym@?A0xc8d640f7@@$$FYGP6GHPAUlua_State@@@Z0PAXPBD@Z 100479a0     luaglue.obj
 0003:000009a4       __mep@?ll_load@?A0xc8d640f7@@$$FYGPAXPAUlua_State@@PBD@Z 100479a4     luaglue.obj
 0003:000009a8       __mep@?math_randomseed@?A0xc8d640f7@@$$FYGHPAUlua_State@@@Z 100479a8     luaglue.obj
 0003:000009ac       __mep@?math_random@?A0xc8d640f7@@$$FYGHPAUlua_State@@@Z 100479ac     luaglue.obj
 0003:000009b0       __mep@?math_max@?A0xc8d640f7@@$$FYGHPAUlua_State@@@Z 100479b0     luaglue.obj
 0003:000009b4       __mep@?math_min@?A0xc8d640f7@@$$FYGHPAUlua_State@@@Z 100479b4     luaglue.obj
 0003:000009b8       __mep@?math_ldexp@?A0xc8d640f7@@$$FYGHPAUlua_State@@@Z 100479b8     luaglue.obj
 0003:000009bc       __mep@?math_frexp@?A0xc8d640f7@@$$FYGHPAUlua_State@@@Z 100479bc     luaglue.obj
 0003:000009c0       __mep@?math_rad@?A0xc8d640f7@@$$FYGHPAUlua_State@@@Z 100479c0     luaglue.obj
 0003:000009c4       __mep@?math_deg@?A0xc8d640f7@@$$FYGHPAUlua_State@@@Z 100479c4     luaglue.obj
 0003:000009c8       __mep@?math_exp@?A0xc8d640f7@@$$FYGHPAUlua_State@@@Z 100479c8     luaglue.obj
 0003:000009cc       __mep@?math_log10@?A0xc8d640f7@@$$FYGHPAUlua_State@@@Z 100479cc     luaglue.obj
 0003:000009d0       __mep@?math_log@?A0xc8d640f7@@$$FYGHPAUlua_State@@@Z 100479d0     luaglue.obj
 0003:000009d4       __mep@?math_pow@?A0xc8d640f7@@$$FYGHPAUlua_State@@@Z 100479d4     luaglue.obj
 0003:000009d8       __mep@?math_sqrt@?A0xc8d640f7@@$$FYGHPAUlua_State@@@Z 100479d8     luaglue.obj
 0003:000009dc       __mep@?math_modf@?A0xc8d640f7@@$$FYGHPAUlua_State@@@Z 100479dc     luaglue.obj
 0003:000009e0       __mep@?math_fmod@?A0xc8d640f7@@$$FYGHPAUlua_State@@@Z 100479e0     luaglue.obj
 0003:000009e4       __mep@?math_floor@?A0xc8d640f7@@$$FYGHPAUlua_State@@@Z 100479e4     luaglue.obj
 0003:000009e8       __mep@?math_ceil@?A0xc8d640f7@@$$FYGHPAUlua_State@@@Z 100479e8     luaglue.obj
 0003:000009ec       __mep@?math_atan2@?A0xc8d640f7@@$$FYGHPAUlua_State@@@Z 100479ec     luaglue.obj
 0003:000009f0       __mep@?math_atan@?A0xc8d640f7@@$$FYGHPAUlua_State@@@Z 100479f0     luaglue.obj
 0003:000009f4       __mep@?math_acos@?A0xc8d640f7@@$$FYGHPAUlua_State@@@Z 100479f4     luaglue.obj
 0003:000009f8       __mep@?math_asin@?A0xc8d640f7@@$$FYGHPAUlua_State@@@Z 100479f8     luaglue.obj
 0003:000009fc       __mep@?math_tanh@?A0xc8d640f7@@$$FYGHPAUlua_State@@@Z 100479fc     luaglue.obj
 0003:00000a00       __mep@?math_tan@?A0xc8d640f7@@$$FYGHPAUlua_State@@@Z 10047a00     luaglue.obj
 0003:00000a04       __mep@?math_cosh@?A0xc8d640f7@@$$FYGHPAUlua_State@@@Z 10047a04     luaglue.obj
 0003:00000a08       __mep@?math_cos@?A0xc8d640f7@@$$FYGHPAUlua_State@@@Z 10047a08     luaglue.obj
 0003:00000a0c       __mep@?math_sinh@?A0xc8d640f7@@$$FYGHPAUlua_State@@@Z 10047a0c     luaglue.obj
 0003:00000a10       __mep@?math_sin@?A0xc8d640f7@@$$FYGHPAUlua_State@@@Z 10047a10     luaglue.obj
 0003:00000a14       __mep@?math_abs@?A0xc8d640f7@@$$FYGHPAUlua_State@@@Z 10047a14     luaglue.obj
 0003:00000a18       __mep@?luaopen_io@@$$FYGHPAUlua_State@@@Z 10047a18     luaglue.obj
 0003:00000a1c       __mep@?f_flush@?A0xc8d640f7@@$$FYGHPAUlua_State@@@Z 10047a1c     luaglue.obj
 0003:00000a20       __mep@?g_write@?A0xc8d640f7@@$$FYGHPAUlua_State@@PAU_iobuf@@H@Z 10047a20     luaglue.obj
 0003:00000a24       __mep@?read_chars@?A0xc8d640f7@@$$FYGHPAUlua_State@@PAU_iobuf@@I@Z 10047a24     luaglue.obj
 0003:00000a28       __mep@?read_line@?A0xc8d640f7@@$$FYGHPAUlua_State@@PAU_iobuf@@@Z 10047a28     luaglue.obj
 0003:00000a2c       __mep@?g_iofile@?A0xc8d640f7@@$$FYGHPAUlua_State@@HPBD@Z 10047a2c     luaglue.obj
 0003:00000a30       __mep@?io_close@?A0xc8d640f7@@$$FYGHPAUlua_State@@@Z 10047a30     luaglue.obj
 0003:00000a34       __mep@?lua_resume@@$$FYGHPAUlua_State@@H@Z 10047a34     luaglue.obj
 0003:00000a38       __mep@?db_gethook@?A0xc8d640f7@@$$FYGHPAUlua_State@@@Z 10047a38     luaglue.obj
 0003:00000a3c       __mep@?auxupvalue@?A0xc8d640f7@@$$FYGHPAUlua_State@@H@Z 10047a3c     luaglue.obj
 0003:00000a40       __mep@?db_setlocal@?A0xc8d640f7@@$$FYGHPAUlua_State@@@Z 10047a40     luaglue.obj
 0003:00000a44       __mep@?db_getlocal@?A0xc8d640f7@@$$FYGHPAUlua_State@@@Z 10047a44     luaglue.obj
 0003:00000a48       __mep@?db_setfenv@?A0xc8d640f7@@$$FYGHPAUlua_State@@@Z 10047a48     luaglue.obj
 0003:00000a4c       __mep@?codenot@?A0xc8d640f7@@$$FYGXPAUFuncState@@PAUexpdesc@@@Z 10047a4c     luaglue.obj
 0003:00000a50       __mep@?jumponcond@?A0xc8d640f7@@$$FYGHPAUFuncState@@PAUexpdesc@@H@Z 10047a50     luaglue.obj
 0003:00000a54       __mep@?luaK_exp2nextreg@@$$FYGXPAUFuncState@@PAUexpdesc@@@Z 10047a54     luaglue.obj
 0003:00000a58       __mep@?auxresume@?A0xc8d640f7@@$$FYGHPAUlua_State@@0H@Z 10047a58     luaglue.obj
 0003:00000a5c       __mep@?luaB_select@?A0xc8d640f7@@$$FYGHPAUlua_State@@@Z 10047a5c     luaglue.obj
 0003:00000a60       __mep@?luaB_ipairs@?A0xc8d640f7@@$$FYGHPAUlua_State@@@Z 10047a60     luaglue.obj
 0003:00000a64       __mep@?ipairsaux@?A0xc8d640f7@@$$FYGHPAUlua_State@@@Z 10047a64     luaglue.obj
 0003:00000a68       __mep@?luaB_pairs@?A0xc8d640f7@@$$FYGHPAUlua_State@@@Z 10047a68     luaglue.obj
 0003:00000a6c       __mep@?luaB_next@?A0xc8d640f7@@$$FYGHPAUlua_State@@@Z 10047a6c     luaglue.obj
 0003:00000a70       __mep@?luaB_rawset@?A0xc8d640f7@@$$FYGHPAUlua_State@@@Z 10047a70     luaglue.obj
 0003:00000a74       __mep@?luaB_rawget@?A0xc8d640f7@@$$FYGHPAUlua_State@@@Z 10047a74     luaglue.obj
 0003:00000a78       __mep@?luaB_setmetatable@?A0xc8d640f7@@$$FYGHPAUlua_State@@@Z 10047a78     luaglue.obj
 0003:00000a7c       __mep@?luaB_getmetatable@?A0xc8d640f7@@$$FYGHPAUlua_State@@@Z 10047a7c     luaglue.obj
 0003:00000a80       __mep@?luaL_addlstring@@$$FYGXPAUluaL_Buffer@@PBDI@Z 10047a80     luaglue.obj
 0003:00000a84       __mep@?luaL_callmeta@@$$FYGHPAUlua_State@@HPBD@Z 10047a84     luaglue.obj
 0003:00000a88       __mep@?luaL_optinteger@@$$FYGHPAUlua_State@@HH@Z 10047a88     luaglue.obj
 0003:00000a8c       __mep@?luaL_optnumber@@$$FYGNPAUlua_State@@HN@Z 10047a8c     luaglue.obj
 0003:00000a90       __mep@?luaL_optlstring@@$$FYGPBDPAUlua_State@@HPBDPAI@Z 10047a90     luaglue.obj
 0003:00000a94       __mep@?luaL_checkoption@@$$FYGHPAUlua_State@@HPBDQBQBD@Z 10047a94     luaglue.obj
 0003:00000a98       __mep@?tconcat@?A0xc8d640f7@@$$FYGHPAUlua_State@@@Z 10047a98     luaglue.obj
 0003:00000a9c       __mep@?tremove@?A0xc8d640f7@@$$FYGHPAUlua_State@@@Z 10047a9c     luaglue.obj
 0003:00000aa0       __mep@?addquoted@?A0xc8d640f7@@$$FYGXPAUlua_State@@PAUluaL_Buffer@@H@Z 10047aa0     luaglue.obj
 0003:00000aa4       __mep@?add_s@?A0xc8d640f7@@$$FYGXPAUMatchState@@PAUluaL_Buffer@@PBD2@Z 10047aa4     luaglue.obj
 0003:00000aa8       __mep@?gmatch@?A0xc8d640f7@@$$FYGHPAUlua_State@@@Z 10047aa8     luaglue.obj
 0003:00000aac       __mep@?str_find_aux@?A0xc8d640f7@@$$FYGHPAUlua_State@@H@Z 10047aac     luaglue.obj
 0003:00000ab0       __mep@?writer@?A0xc8d640f7@@$$FYGHPAUlua_State@@PBXIPAX@Z 10047ab0     luaglue.obj
 0003:00000ab4       __mep@?str_byte@?A0xc8d640f7@@$$FYGHPAUlua_State@@@Z 10047ab4     luaglue.obj
 0003:00000ab8       __mep@?str_rep@?A0xc8d640f7@@$$FYGHPAUlua_State@@@Z 10047ab8     luaglue.obj
 0003:00000abc       __mep@?str_sub@?A0xc8d640f7@@$$FYGHPAUlua_State@@@Z 10047abc     luaglue.obj
 0003:00000ac0       __mep@?prefixexp@?A0xc8d640f7@@$$FYGXPAULexState@@PAUexpdesc@@@Z 10047ac0     luaglue.obj
 0003:00000ac4       __mep@?explist1@?A0xc8d640f7@@$$FYGHPAULexState@@PAUexpdesc@@@Z 10047ac4     luaglue.obj
 0003:00000ac8       __mep@?body@?A0xc8d640f7@@$$FYGXPAULexState@@PAUexpdesc@@HH@Z 10047ac8     luaglue.obj
 0003:00000acc       __mep@?lastlistfield@?A0xc8d640f7@@$$FYGXPAUFuncState@@PAUConsControl@@@Z 10047acc     luaglue.obj
 0003:00000ad0       __mep@?closelistfield@?A0xc8d640f7@@$$FYGXPAUFuncState@@PAUConsControl@@@Z 10047ad0     luaglue.obj
 0003:00000ad4       __mep@?adjust_assign@?A0xc8d640f7@@$$FYGXPAULexState@@HHPAUexpdesc@@@Z 10047ad4     luaglue.obj
 0003:00000ad8       __mep@?os_exit@?A0xc8d640f7@@$$FYGHPAUlua_State@@@Z 10047ad8     luaglue.obj
 0003:00000adc       __mep@?os_setlocale@?A0xc8d640f7@@$$FYGHPAUlua_State@@@Z 10047adc     luaglue.obj
 0003:00000ae0       __mep@?os_difftime@?A0xc8d640f7@@$$FYGHPAUlua_State@@@Z 10047ae0     luaglue.obj
 0003:00000ae4       __mep@?os_date@?A0xc8d640f7@@$$FYGHPAUlua_State@@@Z 10047ae4     luaglue.obj
 0003:00000ae8       __mep@?os_execute@?A0xc8d640f7@@$$FYGHPAUlua_State@@@Z 10047ae8     luaglue.obj
 0003:00000aec       __mep@?ll_loadfunc@?A0xc8d640f7@@$$FYGHPAUlua_State@@PBD1@Z 10047aec     luaglue.obj
 0003:00000af0       __mep@?f_setvbuf@?A0xc8d640f7@@$$FYGHPAUlua_State@@@Z 10047af0     luaglue.obj
 0003:00000af4       __mep@?f_seek@?A0xc8d640f7@@$$FYGHPAUlua_State@@@Z 10047af4     luaglue.obj
 0003:00000af8       __mep@?f_write@?A0xc8d640f7@@$$FYGHPAUlua_State@@@Z 10047af8     luaglue.obj
 0003:00000afc       __mep@?io_write@?A0xc8d640f7@@$$FYGHPAUlua_State@@@Z 10047afc     luaglue.obj
 0003:00000b00       __mep@?io_readline@?A0xc8d640f7@@$$FYGHPAUlua_State@@@Z 10047b00     luaglue.obj
 0003:00000b04       __mep@?g_read@?A0xc8d640f7@@$$FYGHPAUlua_State@@PAU_iobuf@@H@Z 10047b04     luaglue.obj
 0003:00000b08       __mep@?aux_lines@?A0xc8d640f7@@$$FYGXPAUlua_State@@HH@Z 10047b08     luaglue.obj
 0003:00000b0c       __mep@?io_output@?A0xc8d640f7@@$$FYGHPAUlua_State@@@Z 10047b0c     luaglue.obj
 0003:00000b10       __mep@?io_input@?A0xc8d640f7@@$$FYGHPAUlua_State@@@Z 10047b10     luaglue.obj
 0003:00000b14       __mep@?io_popen@?A0xc8d640f7@@$$FYGHPAUlua_State@@@Z 10047b14     luaglue.obj
 0003:00000b18       __mep@?io_open@?A0xc8d640f7@@$$FYGHPAUlua_State@@@Z 10047b18     luaglue.obj
 0003:00000b1c       __mep@?db_sethook@?A0xc8d640f7@@$$FYGHPAUlua_State@@@Z 10047b1c     luaglue.obj
 0003:00000b20       __mep@?db_setupvalue@?A0xc8d640f7@@$$FYGHPAUlua_State@@@Z 10047b20     luaglue.obj
 0003:00000b24       __mep@?db_getupvalue@?A0xc8d640f7@@$$FYGHPAUlua_State@@@Z 10047b24     luaglue.obj
 0003:00000b28       __mep@?db_getinfo@?A0xc8d640f7@@$$FYGHPAUlua_State@@@Z 10047b28     luaglue.obj
 0003:00000b2c       __mep@?luaK_goiffalse@?A0xc8d640f7@@$$FYGXPAUFuncState@@PAUexpdesc@@@Z 10047b2c     luaglue.obj
 0003:00000b30       __mep@?luaK_goiftrue@@$$FYGXPAUFuncState@@PAUexpdesc@@@Z 10047b30     luaglue.obj
 0003:00000b34       __mep@?luaK_exp2anyreg@@$$FYGHPAUFuncState@@PAUexpdesc@@@Z 10047b34     luaglue.obj
 0003:00000b38       __mep@?base_open@?A0xc8d640f7@@$$FYGXPAUlua_State@@@Z 10047b38     luaglue.obj
 0003:00000b3c       __mep@?luaB_auxwrap@?A0xc8d640f7@@$$FYGHPAUlua_State@@@Z 10047b3c     luaglue.obj
 0003:00000b40       __mep@?luaB_coresume@?A0xc8d640f7@@$$FYGHPAUlua_State@@@Z 10047b40     luaglue.obj
 0003:00000b44       __mep@?luaB_tostring@?A0xc8d640f7@@$$FYGHPAUlua_State@@@Z 10047b44     luaglue.obj
 0003:00000b48       __mep@?luaB_unpack@?A0xc8d640f7@@$$FYGHPAUlua_State@@@Z 10047b48     luaglue.obj
 0003:00000b4c       __mep@?luaB_assert@?A0xc8d640f7@@$$FYGHPAUlua_State@@@Z 10047b4c     luaglue.obj
 0003:00000b50       __mep@?luaB_collectgarbage@?A0xc8d640f7@@$$FYGHPAUlua_State@@@Z 10047b50     luaglue.obj
 0003:00000b54       __mep@?getfunc@?A0xc8d640f7@@$$FYGXPAUlua_State@@H@Z 10047b54     luaglue.obj
 0003:00000b58       __mep@?luaB_error@?A0xc8d640f7@@$$FYGHPAUlua_State@@@Z 10047b58     luaglue.obj
 0003:00000b5c       __mep@?luaB_tonumber@?A0xc8d640f7@@$$FYGHPAUlua_State@@@Z 10047b5c     luaglue.obj
 0003:00000b60       __mep@?luaL_addstring@@$$FYGXPAUluaL_Buffer@@PBD@Z 10047b60     luaglue.obj
 0003:00000b64       __mep@?luaL_gsub@@$$FYGPBDPAUlua_State@@PBD11@Z 10047b64     luaglue.obj
 0003:00000b68       __mep@?str_format@?A0xc8d640f7@@$$FYGHPAUlua_State@@@Z 10047b68     luaglue.obj
 0003:00000b6c       __mep@?add_value@?A0xc8d640f7@@$$FYGXPAUMatchState@@PAUluaL_Buffer@@PBD2@Z 10047b6c     luaglue.obj
 0003:00000b70       __mep@?str_match@?A0xc8d640f7@@$$FYGHPAUlua_State@@@Z 10047b70     luaglue.obj
 0003:00000b74       __mep@?str_find@?A0xc8d640f7@@$$FYGHPAUlua_State@@@Z 10047b74     luaglue.obj
 0003:00000b78       __mep@?str_dump@?A0xc8d640f7@@$$FYGHPAUlua_State@@@Z 10047b78     luaglue.obj
 0003:00000b7c       __mep@?retstat@?A0xc8d640f7@@$$FYGXPAULexState@@@Z 10047b7c     luaglue.obj
 0003:00000b80       __mep@?localstat@?A0xc8d640f7@@$$FYGXPAULexState@@@Z 10047b80     luaglue.obj
 0003:00000b84       __mep@?forlist@?A0xc8d640f7@@$$FYGXPAULexState@@PATTString@@@Z 10047b84     luaglue.obj
 0003:00000b88       __mep@?mkfuncname@?A0xc8d640f7@@$$FYGPBDPAUlua_State@@PBD@Z 10047b88     luaglue.obj
 0003:00000b8c       __mep@?findfile@?A0xc8d640f7@@$$FYGPBDPAUlua_State@@PBD1@Z 10047b8c     luaglue.obj
 0003:00000b90       __mep@?ll_loadlib@?A0xc8d640f7@@$$FYGHPAUlua_State@@@Z 10047b90     luaglue.obj
 0003:00000b94       __mep@?setprogdir@?A0xc8d640f7@@$$FYGXPAUlua_State@@@Z 10047b94     luaglue.obj
 0003:00000b98       __mep@?f_read@?A0xc8d640f7@@$$FYGHPAUlua_State@@@Z 10047b98     luaglue.obj
 0003:00000b9c       __mep@?io_read@?A0xc8d640f7@@$$FYGHPAUlua_State@@@Z 10047b9c     luaglue.obj
 0003:00000ba0       __mep@?f_lines@?A0xc8d640f7@@$$FYGHPAUlua_State@@@Z 10047ba0     luaglue.obj
 0003:00000ba4       __mep@?luaK_exp2val@@$$FYGXPAUFuncState@@PAUexpdesc@@@Z 10047ba4     luaglue.obj
 0003:00000ba8       __mep@?luaopen_base@@$$FYGHPAUlua_State@@@Z 10047ba8     luaglue.obj
 0003:00000bac       __mep@?luaB_cowrap@?A0xc8d640f7@@$$FYGHPAUlua_State@@@Z 10047bac     luaglue.obj
 0003:00000bb0       __mep@?luaB_setfenv@?A0xc8d640f7@@$$FYGHPAUlua_State@@@Z 10047bb0     luaglue.obj
 0003:00000bb4       __mep@?luaB_getfenv@?A0xc8d640f7@@$$FYGHPAUlua_State@@@Z 10047bb4     luaglue.obj
 0003:00000bb8       __mep@?str_gsub@?A0xc8d640f7@@$$FYGHPAUlua_State@@@Z 10047bb8     luaglue.obj
 0003:00000bbc       __mep@?yindex@?A0xc8d640f7@@$$FYGXPAULexState@@PAUexpdesc@@@Z 10047bbc     luaglue.obj
 0003:00000bc0       __mep@?setpath@?A0xc8d640f7@@$$FYGXPAUlua_State@@PBD11@Z 10047bc0     luaglue.obj
 0003:00000bc4       __mep@?loader_Croot@?A0xc8d640f7@@$$FYGHPAUlua_State@@@Z 10047bc4     luaglue.obj
 0003:00000bc8       __mep@?loader_C@?A0xc8d640f7@@$$FYGHPAUlua_State@@@Z 10047bc8     luaglue.obj
 0003:00000bcc       __mep@?io_lines@?A0xc8d640f7@@$$FYGHPAUlua_State@@@Z 10047bcc     luaglue.obj
 0003:00000bd0       __mep@?luaK_exp2RK@@$$FYGHPAUFuncState@@PAUexpdesc@@@Z 10047bd0     luaglue.obj
 0003:00000bd4       __mep@?recfield@?A0xc8d640f7@@$$FYGXPAULexState@@PAUConsControl@@@Z 10047bd4     luaglue.obj
 0003:00000bd8       __mep@?luaopen_package@@$$FYGHPAUlua_State@@@Z 10047bd8     luaglue.obj
 0003:00000bdc       __mep@?luaK_infix@@$$FYGXPAUFuncState@@W4BinOpr@@PAUexpdesc@@@Z 10047bdc     luaglue.obj
 0003:00000be0       __mep@?codecomp@?A0xc8d640f7@@$$FYGXPAUFuncState@@W4OpCode@@HPAUexpdesc@@2@Z 10047be0     luaglue.obj
 0003:00000be4       __mep@?codearith@?A0xc8d640f7@@$$FYGXPAUFuncState@@W4OpCode@@PAUexpdesc@@2@Z 10047be4     luaglue.obj
 0003:00000be8       __mep@?luaK_indexed@@$$FYGXPAUFuncState@@PAUexpdesc@@1@Z 10047be8     luaglue.obj
 0003:00000bec       __mep@?luaK_self@@$$FYGXPAUFuncState@@PAUexpdesc@@1@Z 10047bec     luaglue.obj
 0003:00000bf0       __mep@?luaK_storevar@@$$FYGXPAUFuncState@@PAUexpdesc@@1@Z 10047bf0     luaglue.obj
 0003:00000bf4       __mep@?localfunc@?A0xc8d640f7@@$$FYGXPAULexState@@@Z 10047bf4     luaglue.obj
 0003:00000bf8       __mep@?constructor@?A0xc8d640f7@@$$FYGXPAULexState@@PAUexpdesc@@@Z 10047bf8     luaglue.obj
 0003:00000bfc       __mep@?field@?A0xc8d640f7@@$$FYGXPAULexState@@PAUexpdesc@@@Z 10047bfc     luaglue.obj
 0003:00000c00       __mep@?luaK_posfix@@$$FYGXPAUFuncState@@W4BinOpr@@PAUexpdesc@@2@Z 10047c00     luaglue.obj
 0003:00000c04       __mep@?luaK_prefix@@$$FYGXPAUFuncState@@W4UnOpr@@PAUexpdesc@@@Z 10047c04     luaglue.obj
 0003:00000c08       __mep@?funcname@?A0xc8d640f7@@$$FYGHPAULexState@@PAUexpdesc@@@Z 10047c08     luaglue.obj
 0003:00000c0c       __mep@?funcargs@?A0xc8d640f7@@$$FYGXPAULexState@@PAUexpdesc@@@Z 10047c0c     luaglue.obj
 0003:00000c10       __mep@?funcstat@?A0xc8d640f7@@$$FYGXPAULexState@@H@Z 10047c10     luaglue.obj
 0003:00000c14       __mep@?primaryexp@?A0xc8d640f7@@$$FYGXPAULexState@@PAUexpdesc@@@Z 10047c14     luaglue.obj
 0003:00000c18       __mep@?assignment@?A0xc8d640f7@@$$FYGXPAULexState@@PAULHS_assign@@H@Z 10047c18     luaglue.obj
 0003:00000c1c       __mep@?simpleexp@?A0xc8d640f7@@$$FYGXPAULexState@@PAUexpdesc@@@Z 10047c1c     luaglue.obj
 0003:00000c20       __mep@?exprstat@?A0xc8d640f7@@$$FYGXPAULexState@@@Z 10047c20     luaglue.obj
 0003:00000c24       __mep@?subexpr@?A0xc8d640f7@@$$FYG?AW4BinOpr@@PAULexState@@PAUexpdesc@@I@Z 10047c24     luaglue.obj
 0003:00000c28       __mep@?expr@?A0xc8d640f7@@$$FYGXPAULexState@@PAUexpdesc@@@Z 10047c28     luaglue.obj
 0003:00000c2c       __mep@?exp1@?A0xc8d640f7@@$$FYGHPAULexState@@@Z 10047c2c     luaglue.obj
 0003:00000c30       __mep@?cond@?A0xc8d640f7@@$$FYGHPAULexState@@@Z 10047c30     luaglue.obj
 0003:00000c34       __mep@?test_then_block@?A0xc8d640f7@@$$FYGHPAULexState@@@Z 10047c34     luaglue.obj
 0003:00000c38       __mep@?fornum@?A0xc8d640f7@@$$FYGXPAULexState@@PATTString@@H@Z 10047c38     luaglue.obj
 0003:00000c3c       __mep@?repeatstat@?A0xc8d640f7@@$$FYGXPAULexState@@H@Z 10047c3c     luaglue.obj
 0003:00000c40       __mep@?whilestat@?A0xc8d640f7@@$$FYGXPAULexState@@H@Z 10047c40     luaglue.obj
 0003:00000c44       __mep@?ifstat@?A0xc8d640f7@@$$FYGXPAULexState@@H@Z 10047c44     luaglue.obj
 0003:00000c48       __mep@?forstat@?A0xc8d640f7@@$$FYGXPAULexState@@H@Z 10047c48     luaglue.obj
 0003:00000c4c       __mep@?statement@?A0xc8d640f7@@$$FYGHPAULexState@@@Z 10047c4c     luaglue.obj
 0003:00000c50       __mep@?chunk@?A0xc8d640f7@@$$FYGXPAULexState@@@Z 10047c50     luaglue.obj
 0003:00000c54       __mep@?luaY_parser@@$$FYGPAUProto@@PAUlua_State@@PAUZio@@PAUMbuffer@@PBD@Z 10047c54     luaglue.obj
 0003:00000c58       __mep@?f_parser@?A0xc8d640f7@@$$FYGXPAUlua_State@@PAX@Z 10047c58     luaglue.obj
 0003:00000c5c       __mep@?luaD_protectedparser@@$$FYGHPAUlua_State@@PAUZio@@PBD@Z 10047c5c     luaglue.obj
 0003:00000c60       __mep@?lua_load@@$$FYGHPAUlua_State@@P6GPBD0PAXPAI@Z1PBD@Z 10047c60     luaglue.obj
 0003:00000c64       __mep@?luaB_load@?A0xc8d640f7@@$$FYGHPAUlua_State@@@Z 10047c64     luaglue.obj
 0003:00000c68       __mep@?luaL_loadbuffer@@$$FYGHPAUlua_State@@PBDI1@Z 10047c68     luaglue.obj
 0003:00000c6c       __mep@?luaL_loadfile@@$$FYGHPAUlua_State@@PBD@Z 10047c6c     luaglue.obj
 0003:00000c70       __mep@?handle_script@?A0xc8d640f7@@$$FYGHPAUlua_State@@PAPADH@Z 10047c70     luaglue.obj
 0003:00000c74       __mep@?loadline@?A0xc8d640f7@@$$FYGHPAUlua_State@@@Z 10047c74     luaglue.obj
 0003:00000c78       __mep@?dostring@?A0xc8d640f7@@$$FYGHPAUlua_State@@PBD1@Z 10047c78     luaglue.obj
 0003:00000c7c       __mep@?dofile@?A0xc8d640f7@@$$FYGHPAUlua_State@@PBD@Z 10047c7c     luaglue.obj
 0003:00000c80       __mep@?loader_Lua@?A0xc8d640f7@@$$FYGHPAUlua_State@@@Z 10047c80     luaglue.obj
 0003:00000c84       __mep@?db_debug@?A0xc8d640f7@@$$FYGHPAUlua_State@@@Z 10047c84     luaglue.obj
 0003:00000c88       __mep@?luaB_dofile@?A0xc8d640f7@@$$FYGHPAUlua_State@@@Z 10047c88     luaglue.obj
 0003:00000c8c       __mep@?luaB_loadfile@?A0xc8d640f7@@$$FYGHPAUlua_State@@@Z 10047c8c     luaglue.obj
 0003:00000c90       __mep@?luaB_loadstring@?A0xc8d640f7@@$$FYGHPAUlua_State@@@Z 10047c90     luaglue.obj
 0003:00000c94       __mep@?luaL_loadstring@@$$FYGHPAUlua_State@@PBD@Z 10047c94     luaglue.obj
 0003:00000c98       __mep@?handle_luainit@?A0xc8d640f7@@$$FYGHPAUlua_State@@@Z 10047c98     luaglue.obj
 0003:00000c9c       __mep@?runargs@?A0xc8d640f7@@$$FYGHPAUlua_State@@PAPADH@Z 10047c9c     luaglue.obj
 0003:00000ca0       __mep@?dotty@?A0xc8d640f7@@$$FYGXPAUlua_State@@@Z 10047ca0     luaglue.obj
 0003:00000ca4       __mep@?pmain@?A0xc8d640f7@@$$FYGHPAUlua_State@@@Z 10047ca4     luaglue.obj
 0003:00000ca8       __mep@?main@@$$HYAHHPAPAD@Z 10047ca8     luaglue.obj
 0003:00000cb4       ?__type_info_root_node@@3U__type_info_node@@A 10047cb4     MSVCRT:tncleanup.obj
 0003:000010e0       ?Count@AllDomains@<CrtImplementationDetails>@@2HA 100480e0     MSVCMRT:mstartup.obj
 0003:000010e4       ?Entered@DefaultDomain@<CrtImplementationDetails>@@2_NA 100480e4     MSVCMRT:mstartup.obj
 0003:000010e5       ?InitializedNative@DefaultDomain@<CrtImplementationDetails>@@2_NA 100480e5     MSVCMRT:mstartup.obj
 0003:000010e6       ?InitializedNativeFromCCTOR@DefaultDomain@<CrtImplementationDetails>@@2_NA 100480e6     MSVCMRT:mstartup.obj
 0003:000010e7       ?InitializedPerProcess@DefaultDomain@<CrtImplementationDetails>@@2_NA 100480e7     MSVCMRT:mstartup.obj
 0003:00002794       __adjust_fdiv              10049794     <common>
 0003:00002798       ___native_startup_state    10049798     <common>
 0003:0000279c       ___native_startup_lock     1004979c     <common>
 0003:000027a0       ___onexitend               100497a0     <common>
 0003:000027a4       ___onexitbegin             100497a4     <common>
 0003:000027a8       ___dyn_tls_init_callback   100497a8     <common>

 entry point at        0001:0001b520

 Static symbols

 0001:00003a69       _pre_c_init                10004a69 f   MSVCRT:crtdll.obj
 0001:00003cde       ___DllMainCRTStartup       10004cde f   MSVCRT:crtdll.obj
 0001:00003e1e       ?ArrayUnwindFilter@@YAHPAU_EXCEPTION_POINTERS@@@Z 10004e1e f   MSVCRT:ehvecdtr.obj
 0001:00004782       __catch$?Cleanup@LanguageSupport@<CrtImplementationDetails>@@$$FAAMXP$AAVException@System@@@Z$0 10005782 f i MSVCMRT:mstartup.obj
 0001:0000478c       __catch$?Cleanup@LanguageSupport@<CrtImplementationDetails>@@$$FAAMXP$AAVException@System@@@Z$1 1000578c f i MSVCMRT:mstartup.obj
 0001:00004a88       __catch$?_Initialize@LanguageSupport@<CrtImplementationDetails>@@$$FAAEXXZ$0 10005a88 f i MSVCMRT:mstartup.obj
 0001:00004af3       __catch$?_Initialize@LanguageSupport@<CrtImplementationDetails>@@$$FAAEXXZ$2 10005af3 f i MSVCMRT:mstartup.obj
 0001:00004b8a       __catch$?Initialize@LanguageSupport@<CrtImplementationDetails>@@$$FQAEXXZ$0 10005b8a f i MSVCMRT:mstartup.obj
 0001:00004ba0       __catch$?Initialize@LanguageSupport@<CrtImplementationDetails>@@$$FQAEXXZ$2 10005ba0 f i MSVCMRT:mstartup.obj
 0001:00004bb9       __catch$?Initialize@LanguageSupport@<CrtImplementationDetails>@@$$FQAEXXZ$3 10005bb9 f i MSVCMRT:mstartup.obj
 0001:00004f62       __catch$?_atexit_helper@@$$J0YMHP6MXXZPAIPAPAP6MXXZ2@Z$0 10005f62 f   MSVCMRT:msilexit.obj
 0001:00004fbb       __catch$?_atexit_helper@@$$J0YMHP6MXXZPAIPAPAP6MXXZ2@Z$2 10005fbb f   MSVCMRT:msilexit.obj
 0001:00004fc2       __catch$?_atexit_helper@@$$J0YMHP6MXXZPAIPAPAP6MXXZ2@Z$3 10005fc2 f   MSVCMRT:msilexit.obj
 0001:000071bb       $LN7                       100081bb f    CIL library: CIL module
 0001:000071bb       __catch$?luaD_rawrunprotected@@$$FYGHPAUlua_State@@P6GX0PAX@Z1@Z$0 100081bb f    CIL library: CIL module
 0001:000071d2       $LN27                      100081d2 f    CIL library: CIL module
 0001:000071f4       $LN11                      100081f4 f    CIL library: CIL module
 0001:000071f4       __catch$?luaD_rawrunprotected@@$$FYGHPAUlua_State@@P6GX0PAX@Z1@Z$1 100081f4 f    CIL library: CIL module
 0001:00007203       $LN30                      10008203 f    CIL library: CIL module
 0001:0000720d       __catch$?luaD_rawrunprotected@@$$FYGHPAUlua_State@@P6GX0PAX@Z1@Z$2 1000820d f    CIL library: CIL module
